(dp0
S'-0.578'
p1
(dp2
S'right_s0'
p3
F-0.30833822001581984
sS'right_s1'
p4
F0.19821598320962305
sS'right_w0'
p5
F-1.2882449239195608
sS'right_w1'
p6
F-0.821084327592567
sS'right_w2'
p7
F3.037982946903882
sS'right_e0'
p8
F0.7658404430494241
sS'right_e1'
p9
F1.1765272722084872
ssS'-0.218'
p10
(dp11
S'right_s0'
p12
F0.01914077629079761
sS'right_s1'
p13
F0.45065512078921494
sS'right_w0'
p14
F-0.8216577944214508
sS'right_w1'
p15
F-1.0802055450501453
sS'right_w2'
p16
F2.236093273627827
sS'right_e0'
p17
F0.9820062277658647
sS'right_e1'
p18
F1.4609698814483614
ssS'-0.219'
p19
(dp20
S'right_s0'
p21
F0.028285622696685664
sS'right_s1'
p22
F0.45568729577862843
sS'right_w0'
p23
F-0.816699676085622
sS'right_w1'
p24
F-1.086196417985895
sS'right_w2'
p25
F2.228127286347073
sS'right_e0'
p26
F0.9869864332241507
sS'right_e1'
p27
F1.4577290130022273
ssS'-0.216'
p28
(dp29
S'right_s0'
p30
F0.03788380506164568
sS'right_s1'
p31
F0.45981849770726235
sS'right_w0'
p32
F-0.8131189376182606
sS'right_w1'
p33
F-1.0905517149321993
sS'right_w2'
p34
F2.2224605812913065
sS'right_e0'
p35
F0.9907839372668121
sS'right_e1'
p36
F1.4557646792724928
ssS'-0.217'
p37
(dp38
S'right_s0'
p39
F0.03788380506164568
sS'right_s1'
p40
F0.45981849770726235
sS'right_w0'
p41
F-0.8131189376182606
sS'right_w1'
p42
F-1.0905517149321993
sS'right_w2'
p43
F2.2224605812913065
sS'right_e0'
p44
F0.9907839372668121
sS'right_e1'
p45
F1.4557646792724928
ssS'-0.214'
p46
(dp47
S'right_s0'
p48
F0.03795649709767979
sS'right_s1'
p49
F0.45984098261107054
sS'right_w0'
p50
F-0.8131551704023412
sS'right_w1'
p51
F-1.090573708265783
sS'right_w2'
p52
F2.2224647288630237
sS'right_e0'
p53
F0.9908086945228209
sS'right_e1'
p54
F1.4557686530839549
ssS'-0.215'
p55
(dp56
S'right_s0'
p57
F0.03792101457716246
sS'right_s1'
p58
F0.4598171334516623
sS'right_w0'
p59
F-0.8131544418982752
sS'right_w1'
p60
F-1.090543357044174
sS'right_w2'
p61
F2.222461977568141
sS'right_e0'
p62
F0.990785886915349
sS'right_e1'
p63
F1.4557574691066852
ssS'-0.212'
p64
(dp65
S'right_s0'
p66
F0.02932124228539196
sS'right_s1'
p67
F0.4554656997605002
sS'right_w0'
p68
F-0.8173844200805086
sS'right_w1'
p69
F-1.085519505346322
sS'right_w2'
p70
F2.2292515572123315
sS'right_e0'
p71
F0.9865632042388119
sS'right_e1'
p72
F1.4587212999651
ssS'-0.213'
p73
(dp74
S'right_s0'
p75
F0.038054768246786885
sS'right_s1'
p76
F0.4599746650453067
sS'right_w0'
p77
F-0.8129967126108077
sS'right_w1'
p78
F-1.0907907336083795
sS'right_w2'
p79
F2.2222748149323532
sS'right_e0'
p80
F0.9909732904531552
sS'right_e1'
p81
F1.45559222302456
ssS'-0.211'
p82
(dp83
S'right_s0'
p84
F0.04940313976752897
sS'right_s1'
p85
F0.46512902521500266
sS'right_w0'
p86
F-0.8083422543795331
sS'right_w1'
p87
F-1.0966320423842006
sS'right_w2'
p88
F2.215072142764214
sS'right_e0'
p89
F0.996165295554369
sS'right_e1'
p90
F1.4524881485666024
ssS'-0.591'
p91
(dp92
S'right_s0'
p93
F-0.30911563448477253
sS'right_s1'
p94
F0.1968079416507864
sS'right_w0'
p95
F-1.299303308156893
sS'right_w1'
p96
F-0.8205454188032304
sS'right_w2'
p97
F3.0503257185328714
sS'right_e0'
p98
F0.7617907853115975
sS'right_e1'
p99
F1.1625979253208722
ssS'-0.593'
p100
(dp101
S'right_s0'
p102
F-0.30938497212784455
sS'right_s1'
p103
F0.19677271386074313
sS'right_w0'
p104
F-1.299294517952399
sS'right_w1'
p105
F-0.8205470734345521
sS'right_w2'
p106
F3.0503156854377043
sS'right_e0'
p107
F0.7617845960901191
sS'right_e1'
p108
F1.1625328863366224
ssS'-0.592'
p109
(dp110
S'right_s0'
p111
F-0.3092515247679257
sS'right_s1'
p112
F0.19679185606048222
sS'right_w0'
p113
F-1.2992937093316037
sS'right_w1'
p114
F-0.8205454058602193
sS'right_w2'
p115
F3.05031960002184
sS'right_e0'
p116
F0.7617999400607856
sS'right_e1'
p117
F1.1625573869229715
ssS'-0.594'
p118
(dp119
S'right_s0'
p120
F-0.309494179954668
sS'right_s1'
p121
F0.19676172873375197
sS'right_w0'
p122
F-1.2992693894266782
sS'right_w1'
p123
F-0.8205436805731221
sS'right_w2'
p124
F3.0503147983245
sS'right_e0'
p125
F0.7617673387832236
sS'right_e1'
p126
F1.1625114482772592
ssS'-0.376'
p127
(dp128
S'right_s0'
p129
F-0.1892162804917792
sS'right_s1'
p130
F0.3287483223063674
sS'right_w0'
p131
F-0.9616873069974128
sS'right_w1'
p132
F-0.9396921075135065
sS'right_w2'
p133
F2.468628633151164
sS'right_e0'
p134
F0.8886812480836888
sS'right_e1'
p135
F1.4468361918654518
ssS'-0.043'
p136
(dp137
S'right_s0'
p138
F0.39570429250353456
sS'right_s1'
p139
F0.5730559873984724
sS'right_w0'
p140
F-0.7132201410716803
sS'right_w1'
p141
F-1.2063358570542864
sS'right_w2'
p142
F2.102287349803495
sS'right_e0'
p143
F1.1583102603494861
sS'right_e1'
p144
F1.288854862122509
ssS'-0.042'
p145
(dp146
S'right_s0'
p147
F0.39587767679666896
sS'right_s1'
p148
F0.5730593093501568
sS'right_w0'
p149
F-0.7132295291909383
sS'right_w1'
p150
F-1.2063172663517356
sS'right_w2'
p151
F2.1022922506841564
sS'right_e0'
p152
F1.1583361593902444
sS'right_e1'
p153
F1.2888815306030752
ssS'-0.041'
p154
(dp155
S'right_s0'
p156
F0.39605793268797296
sS'right_s1'
p157
F0.5730545106305964
sS'right_w0'
p158
F-0.713243785933507
sS'right_w1'
p159
F-1.2063018719246141
sS'right_w2'
p160
F2.1022936457351395
sS'right_e0'
p161
F1.1583678003048101
sS'right_e1'
p162
F1.2889198404314701
ssS'-0.047'
p163
(dp164
S'right_s0'
p165
F0.37801241410720987
sS'right_s1'
p166
F0.5694435174976071
sS'right_w0'
p167
F-0.7174719459953334
sS'right_w1'
p168
F-1.2029680225281671
sS'right_w2'
p169
F2.104824637209008
sS'right_e0'
p170
F1.1496738423329047
sS'right_e1'
p171
F1.3007979229663666
ssS'-0.046'
p172
(dp173
S'right_s0'
p174
F0.37801241410720987
sS'right_s1'
p175
F0.5694435174976071
sS'right_w0'
p176
F-0.7174719459953334
sS'right_w1'
p177
F-1.2029680225281671
sS'right_w2'
p178
F2.104824637209008
sS'right_e0'
p179
F1.1496738423329047
sS'right_e1'
p180
F1.3007979229663666
ssS'-0.045'
p181
(dp182
S'right_s0'
p183
F0.37859601940234455
sS'right_s1'
p184
F0.5694964524056116
sS'right_w0'
p185
F-0.7173986027951367
sS'right_w1'
p186
F-1.203019446549824
sS'right_w2'
p187
F2.104786882783591
sS'right_e0'
p188
F1.1498863742255843
sS'right_e1'
p189
F1.3005706979992446
ssS'-0.044'
p190
(dp191
S'right_s0'
p192
F0.36965620652124653
sS'right_s1'
p193
F0.567871380600702
sS'right_w0'
p194
F-0.7195658265096023
sS'right_w1'
p195
F-1.2015966752703575
sS'right_w2'
p196
F2.10637715325565
sS'right_e0'
p197
F1.1458258551532274
sS'right_e1'
p198
F1.306493901729689
ssS'-0.049'
p199
(dp200
S'right_s0'
p201
F0.3775614489448298
sS'right_s1'
p202
F0.5694377280341314
sS'right_w0'
p203
F-0.7174440135688744
sS'right_w1'
p204
F-1.2029835843410934
sS'right_w2'
p205
F2.1048262736309695
sS'right_e0'
p206
F1.1495440781866035
sS'right_e1'
p207
F1.300752596440316
ssS'-0.048'
p208
(dp209
S'right_s0'
p210
F0.3775614489448298
sS'right_s1'
p211
F0.5694377280341314
sS'right_w0'
p212
F-0.7174440135688744
sS'right_w1'
p213
F-1.2029835843410934
sS'right_w2'
p214
F2.1048262736309695
sS'right_e0'
p215
F1.1495440781866035
sS'right_e1'
p216
F1.300752596440316
ssS'-0.285'
p217
(dp218
S'right_s0'
p219
F-0.07503481493602582
sS'right_s1'
p220
F0.4035482964485837
sS'right_w0'
p221
F-0.8683278991758465
sS'right_w1'
p222
F-1.0255368424042182
sS'right_w2'
p223
F2.3107739327760655
sS'right_e0'
p224
F0.9420506118367058
sS'right_e1'
p225
F1.4713520281016983
ssS'-0.284'
p226
(dp227
S'right_s0'
p228
F-0.0750125559993089
sS'right_s1'
p229
F0.4035621939059162
sS'right_w0'
p230
F-0.8683068584749627
sS'right_w1'
p231
F-1.0255844524829723
sS'right_w2'
p232
F2.3107800274535055
sS'right_e0'
p233
F0.9419869146814124
sS'right_e1'
p234
F1.4713170147966235
ssS'-0.287'
p235
(dp236
S'right_s0'
p237
F-0.07509260007122087
sS'right_s1'
p238
F0.40353344235925004
sS'right_w0'
p239
F-0.868345811788533
sS'right_w1'
p240
F-1.0255638208458047
sS'right_w2'
p241
F2.3107635845798846
sS'right_e0'
p242
F0.9421042138497722
sS'right_e1'
p243
F1.471370577598722
ssS'-0.286'
p244
(dp245
S'right_s0'
p246
F-0.0750607361747182
sS'right_s1'
p247
F0.40353235363094253
sS'right_w0'
p248
F-0.8683241648037798
sS'right_w1'
p249
F-1.0255580979288128
sS'right_w2'
p250
F2.3107678655508934
sS'right_e0'
p251
F0.9420909787779896
sS'right_e1'
p252
F1.4713663142397202
ssS'-0.281'
p253
(dp254
S'right_s0'
p255
F-0.06613786646030118
sS'right_s1'
p256
F0.4084702925752799
sS'right_w0'
p257
F-0.8630382687375349
sS'right_w1'
p258
F-1.0313126200139955
sS'right_w2'
p259
F2.302137725375223
sS'right_e0'
p260
F0.945931290058768
sS'right_e1'
p261
F1.4712016048915242
ssS'-0.283'
p262
(dp263
S'right_s0'
p264
F-0.0749727364625219
sS'right_s1'
p265
F0.4037131051941065
sS'right_w0'
p266
F-0.8681234640157429
sS'right_w1'
p267
F-1.025808825398748
sS'right_w2'
p268
F2.3105284031469395
sS'right_e0'
p269
F0.9420674289306943
sS'right_e1'
p270
F1.4712494158968692
ssS'-0.282'
p271
(dp272
S'right_s0'
p273
F-0.08164697399311877
sS'right_s1'
p274
F0.3992520507398565
sS'right_w0'
p275
F-0.8734438070532379
sS'right_w1'
p276
F-1.0202473961075689
sS'right_w2'
p277
F2.3194188863888523
sS'right_e0'
p278
F0.9385588396785067
sS'right_e1'
p279
F1.4717944674440306
ssS'-0.322'
p280
(dp281
S'right_s0'
p282
F-0.12464582738785612
sS'right_s1'
p283
F0.37344685758969476
sS'right_w0'
p284
F-0.9025109744762991
sS'right_w1'
p285
F-0.9905133268035886
sS'right_w2'
p286
F2.367794195340327
sS'right_e0'
p287
F0.9198460480612214
sS'right_e1'
p288
F1.467722286775901
ssS'-0.323'
p289
(dp290
S'right_s0'
p291
F-0.12460517621209632
sS'right_s1'
p292
F0.3734392637423536
sS'right_w0'
p293
F-0.9025134624388977
sS'right_w1'
p294
F-0.9904912496830711
sS'right_w2'
p295
F2.367788812950524
sS'right_e0'
p296
F0.9198563043823462
sS'right_e1'
p297
F1.4677018045786374
ssS'-0.321'
p298
(dp299
S'right_s0'
p300
F-0.12467919301297847
sS'right_s1'
p301
F0.3734432548006117
sS'right_w0'
p302
F-0.9025003432745331
sS'right_w1'
p303
F-0.9905023334072407
sS'right_w2'
p304
F2.367795356398698
sS'right_e0'
p305
F0.9198013807413448
sS'right_e1'
p306
F1.4676861025784254
ssS'-0.326'
p307
(dp308
S'right_s0'
p309
F-0.13246565840492774
sS'right_s1'
p310
F0.3684143846830157
sS'right_w0'
p311
F-0.9087118755097929
sS'right_w1'
p312
F-0.9845984842186111
sS'right_w2'
p313
F2.3782472913571517
sS'right_e0'
p314
F0.9161936843743277
sS'right_e1'
p315
F1.4663066614314326
ssS'-0.327'
p316
(dp317
S'right_s0'
p318
F-0.1324081402049062
sS'right_s1'
p319
F0.36835311857160313
sS'right_w0'
p320
F-0.9087251979858433
sS'right_w1'
p321
F-0.9845852802901138
sS'right_w2'
p322
F2.3782415650652595
sS'right_e0'
p323
F0.9161403123653873
sS'right_e1'
p324
F1.466262824710964
ssS'-0.324'
p325
(dp326
S'right_s0'
p327
F-0.13853255446204787
sS'right_s1'
p328
F0.3647696776523265
sS'right_w0'
p329
F-0.913582787091735
sS'right_w1'
p330
F-0.9802548704282588
sS'right_w2'
p331
F2.386736403966444
sS'right_e0'
p332
F0.9134141886539597
sS'right_e1'
p333
F1.4655037947276348
ssS'-0.325'
p334
(dp335
S'right_s0'
p336
F-0.13251915656722346
sS'right_s1'
p337
F0.3684978237978829
sS'right_w0'
p338
F-0.9086620600850388
sS'right_w1'
p339
F-0.9846874280330269
sS'right_w2'
p340
F2.378196770761292
sS'right_e0'
p341
F0.9162574657972495
sS'right_e1'
p342
F1.4663383031868475
ssS'-0.036'
p343
(dp344
S'right_s0'
p345
F0.3884769408781686
sS'right_s1'
p346
F0.5715780774687447
sS'right_w0'
p347
F-0.7152933534908008
sS'right_w1'
p348
F-1.2050582461186337
sS'right_w2'
p349
F2.10365566744442
sS'right_e0'
p350
F1.1547556321860628
sS'right_e1'
p351
F1.2947937819421387
ssS'-0.037'
p352
(dp353
S'right_s0'
p354
F0.3972891424388667
sS'right_s1'
p355
F0.5730927724670538
sS'right_w0'
p356
F-0.713185645735245
sS'right_w1'
p357
F-1.2063052684919446
sS'right_w2'
p358
F2.1022668859209954
sS'right_e0'
p359
F1.1587473275907598
sS'right_e1'
p360
F1.2887277376071236
ssS'-0.034'
p361
(dp362
S'right_s0'
p363
F0.41500945200953154
sS'right_s1'
p364
F0.5764259531902809
sS'right_w0'
p365
F-0.7090842113555809
sS'right_w1'
p366
F-1.2093310252062857
sS'right_w2'
p367
F2.100135967679435
sS'right_e0'
p368
F1.1672743923656483
sS'right_e1'
p369
F1.2767249968233259
ssS'-0.035'
p370
(dp371
S'right_s0'
p372
F0.4145833594962678
sS'right_s1'
p373
F0.5764433315023503
sS'right_w0'
p374
F-0.7090705675518638
sS'right_w1'
p375
F-1.2093294927745468
sS'right_w2'
p376
F2.1001344364417545
sS'right_e0'
p377
F1.1671896210641064
sS'right_e1'
p378
F1.2766461589646498
ssS'-0.032'
p379
(dp380
S'right_s0'
p381
F0.415482956974043
sS'right_s1'
p382
F0.5764023809955798
sS'right_w0'
p383
F-0.7091109508460907
sS'right_w1'
p384
F-1.209308619005375
sS'right_w2'
p385
F2.1001448463964145
sS'right_e0'
p386
F1.1673871761708163
sS'right_e1'
p387
F1.2767796923942711
ssS'-0.033'
p388
(dp389
S'right_s0'
p390
F0.41500945200953154
sS'right_s1'
p391
F0.5764259531902809
sS'right_w0'
p392
F-0.7090842113555809
sS'right_w1'
p393
F-1.2093310252062857
sS'right_w2'
p394
F2.100135967679435
sS'right_e0'
p395
F1.1672743923656483
sS'right_e1'
p396
F1.2767249968233259
ssS'-0.139'
p397
(dp398
S'right_s0'
p399
F0.175166079103251
sS'right_s1'
p400
F0.5144507999287322
sS'right_w0'
p401
F-0.7681611668440302
sS'right_w1'
p402
F-1.1483167155932517
sS'right_w2'
p403
F2.155818984616012
sS'right_e0'
p404
F1.05336497845434
sS'right_e1'
p405
F1.408812477347963
ssS'-0.138'
p406
(dp407
S'right_s0'
p408
F0.16628797950086083
sS'right_s1'
p409
F0.511557802397909
sS'right_w0'
p410
F-0.7707284994827204
sS'right_w1'
p411
F-1.1454562733804787
sS'right_w2'
p412
F2.159431857235576
sS'right_e0'
p413
F1.04947603272961
sS'right_e1'
p414
F1.4128605633246702
ssS'-0.137'
p415
(dp416
S'right_s0'
p417
F0.18810183567589522
sS'right_s1'
p418
F0.5190354717666112
sS'right_w0'
p419
F-0.7642693358153281
sS'right_w1'
p420
F-1.15324654232312
sS'right_w2'
p421
F2.1507341121264325
sS'right_e0'
p422
F1.0598522389713843
sS'right_e1'
p423
F1.4026114189745496
ssS'-0.136'
p424
(dp425
S'right_s0'
p426
F0.1883392731312883
sS'right_s1'
p427
F0.5190637045089561
sS'right_w0'
p428
F-0.7642734179401334
sS'right_w1'
p429
F-1.1532411316349904
sS'right_w2'
p430
F2.1507407820113063
sS'right_e0'
p431
F1.0598519827199873
sS'right_e1'
p432
F1.4026588816662535
ssS'-0.135'
p433
(dp434
S'right_s0'
p435
F0.18857429176523421
sS'right_s1'
p436
F0.5191048715120941
sS'right_w0'
p437
F-0.7643053473631474
sS'right_w1'
p438
F-1.1532130000154357
sS'right_w2'
p439
F2.150748102661737
sS'right_e0'
p440
F1.059844185764442
sS'right_e1'
p441
F1.402756490924265
ssS'-0.134'
p442
(dp443
S'right_s0'
p444
F0.18857429176523421
sS'right_s1'
p445
F0.5191048715120941
sS'right_w0'
p446
F-0.7643053473631474
sS'right_w1'
p447
F-1.1532130000154357
sS'right_w2'
p448
F2.150748102661737
sS'right_e0'
p449
F1.059844185764442
sS'right_e1'
p450
F1.402756490924265
ssS'-0.133'
p451
(dp452
S'right_s0'
p453
F0.1887211749225708
sS'right_s1'
p454
F0.5191438911105717
sS'right_w0'
p455
F-0.7643120154258067
sS'right_w1'
p456
F-1.153175757988567
sS'right_w2'
p457
F2.150747757390583
sS'right_e0'
p458
F1.0598723733116717
sS'right_e1'
p459
F1.402746127427256
ssS'-0.132'
p460
(dp461
S'right_s0'
p462
F0.18905340512053126
sS'right_s1'
p463
F0.5192983300904785
sS'right_w0'
p464
F-0.7641845730970802
sS'right_w1'
p465
F-1.1533231707541018
sS'right_w2'
p466
F2.1506186317161884
sS'right_e0'
p467
F1.0599930359250553
sS'right_e1'
p468
F1.402557559304423
ssS'-0.131'
p469
(dp470
S'right_s0'
p471
F0.18029179939946763
sS'right_s1'
p472
F0.5164731029049507
sS'right_w0'
p473
F-0.7667582403167138
sS'right_w1'
p474
F-1.150469087185474
sS'right_w2'
p475
F2.154110823845459
sS'right_e0'
p476
F1.056079946535933
sS'right_e1'
p477
F1.4068097426775534
ssS'-0.039'
p478
(dp479
S'right_s0'
p480
F0.3967131064782059
sS'right_s1'
p481
F0.573046546993103
sS'right_w0'
p482
F-0.7132670377178325
sS'right_w1'
p483
F-1.2062718766424574
sS'right_w2'
p484
F2.1023034404759837
sS'right_e0'
p485
F1.1585313508345774
sS'right_e1'
p486
F1.288982530940669
ssS'-0.421'
p487
(dp488
S'right_s0'
p489
F-0.23363388236194815
sS'right_s1'
p490
F0.2953213565009536
sS'right_w0'
p491
F-1.0168405596976093
sS'right_w1'
p492
F-0.9023208136540362
sS'right_w2'
p493
F2.561521553478139
sS'right_e0'
p494
F0.8663332422294427
sS'right_e1'
p495
F1.4165188784013605
ssS'-0.423'
p496
(dp497
S'right_s0'
p498
F-0.23399165930417176
sS'right_s1'
p499
F0.29526858317750104
sS'right_w0'
p500
F-1.0168337503480096
sS'right_w1'
p501
F-0.9023353293996381
sS'right_w2'
p502
F2.5615049272292314
sS'right_e0'
p503
F0.8663266080415379
sS'right_e1'
p504
F1.4164649746850673
ssS'-0.422'
p505
(dp506
S'right_s0'
p507
F-0.233815168424111
sS'right_s1'
p508
F0.2952967073259378
sS'right_w0'
p509
F-1.0168350500944463
sS'right_w1'
p510
F-0.9023255908873145
sS'right_w2'
p511
F2.5615130928365595
sS'right_e0'
p512
F0.8663286077648733
sS'right_e1'
p513
F1.416477627930191
ssS'-0.425'
p514
(dp515
S'right_s0'
p516
F-0.24073441164686216
sS'right_s1'
p517
F0.288996323564219
sS'right_w0'
p518
F-1.0294524867397916
sS'right_w1'
p519
F-0.8948176418470863
sS'right_w2'
p520
F2.582381658499621
sS'right_e0'
p521
F0.8618590550807275
sS'right_e1'
p522
F1.4089066128495435
ssS'-0.424'
p523
(dp524
S'right_s0'
p525
F-0.243246057274107
sS'right_s1'
p526
F0.2866305306581355
sS'right_w0'
p527
F-1.034598827915827
sS'right_w1'
p528
F-0.8919527578642037
sS'right_w2'
p529
F2.591055804361853
sS'right_e0'
p530
F0.8601817644883624
sS'right_e1'
p531
F1.4062480738708767
ssS'-0.427'
p532
(dp533
S'right_s0'
p534
F-0.24132763331560714
sS'right_s1'
p535
F0.2887837040702639
sS'right_w0'
p536
F-1.0294646618751964
sS'right_w1'
p537
F-0.894862150954645
sS'right_w2'
p538
F2.5824330118805108
sS'right_e0'
p539
F0.861857701155964
sS'right_e1'
p540
F1.4087448485472036
ssS'-0.426'
p541
(dp542
S'right_s0'
p543
F-0.24103556202432141
sS'right_s1'
p544
F0.28886422027735836
sS'right_w0'
p545
F-1.0294386465247687
sS'right_w1'
p546
F-0.8948249486046613
sS'right_w2'
p547
F2.5824548651392014
sS'right_e0'
p548
F0.8618374364052999
sS'right_e1'
p549
F1.4087736143899834
ssS'-0.429'
p550
(dp551
S'right_s0'
p552
F-0.24158013340383988
sS'right_s1'
p553
F0.2887452005927331
sS'right_w0'
p554
F-1.0294856922516775
sS'right_w1'
p555
F-0.8948507956991403
sS'right_w2'
p556
F2.58243972069595
sS'right_e0'
p557
F0.8618739818822485
sS'right_e1'
p558
F1.4086688815757666
ssS'-0.428'
p559
(dp560
S'right_s0'
p561
F-0.24132763331560714
sS'right_s1'
p562
F0.2887837040702639
sS'right_w0'
p563
F-1.0294646618751964
sS'right_w1'
p564
F-0.894862150954645
sS'right_w2'
p565
F2.5824330118805108
sS'right_e0'
p566
F0.861857701155964
sS'right_e1'
p567
F1.4087448485472036
ssS'-0.388'
p568
(dp569
S'right_s0'
p570
F-0.20291860336103884
sS'right_s1'
p571
F0.3184663857668424
sS'right_w0'
p572
F-0.9774471416733945
sS'right_w1'
p573
F-0.9280614616504099
sS'right_w2'
p574
F2.4955147113837786
sS'right_e0'
p575
F0.8815633625215442
sS'right_e1'
p576
F1.439008165569076
ssS'-0.389'
p577
(dp578
S'right_s0'
p579
F-0.20315135779441373
sS'right_s1'
p580
F0.31842894776793074
sS'right_w0'
p581
F-0.9774180402016963
sS'right_w1'
p582
F-0.9280539918267454
sS'right_w2'
p583
F2.4955052656696584
sS'right_e0'
p584
F0.8815273314428964
sS'right_e1'
p585
F1.438967186814133
ssS'-0.252'
p586
(dp587
S'right_s0'
p588
F-0.027144364283544498
sS'right_s1'
p589
F0.4292686555701044
sS'right_w0'
p590
F-0.8417085729312239
sS'right_w1'
p591
F-1.0557438494004616
sS'right_w2'
p592
F2.2676213044844644
sS'right_e0'
p593
F0.9628763984797795
sS'right_e1'
p594
F1.4677471062753833
ssS'-0.253'
p595
(dp596
S'right_s0'
p597
F-0.02724631299366642
sS'right_s1'
p598
F0.4291367182104828
sS'right_w0'
p599
F-0.8417581147376172
sS'right_w1'
p600
F-1.0556204847531596
sS'right_w2'
p601
F2.2677191625912805
sS'right_e0'
p602
F0.9627444623335144
sS'right_e1'
p603
F1.467835880732964
ssS'-0.399'
p604
(dp605
S'right_s0'
p606
F-0.220924749029491
sS'right_s1'
p607
F0.30483186639010845
sS'right_w0'
p608
F-1.0003575694022788
sS'right_w1'
p609
F-0.9127202604322214
sS'right_w2'
p610
F2.534201939008399
sS'right_e0'
p611
F0.872634834790003
sS'right_e1'
p612
F1.4270773677284385
ssS'-0.251'
p613
(dp614
S'right_s0'
p615
F-0.034888045640126854
sS'right_s1'
p616
F0.42441557113760536
sS'right_w0'
p617
F-0.847041502806888
sS'right_w1'
p618
F-1.04971031768289
sS'right_w2'
p619
F2.276288169501492
sS'right_e0'
p620
F0.958678919008238
sS'right_e1'
p621
F1.4696336500822724
ssS'-0.256'
p622
(dp623
S'right_s0'
p624
F-0.027519145031999592
sS'right_s1'
p625
F0.4291295177772092
sS'right_w0'
p626
F-0.8417581058790464
sS'right_w1'
p627
F-1.0555041504232623
sS'right_w2'
p628
F2.2677095289868134
sS'right_e0'
p629
F0.9627866130373022
sS'right_e1'
p630
F1.4678996565026692
ssS'-0.257'
p631
(dp632
S'right_s0'
p633
F-0.027621786349555144
sS'right_s1'
p634
F0.4291260858189645
sS'right_w0'
p635
F-0.841757284871715
sS'right_w1'
p636
F-1.0555836636025404
sS'right_w2'
p637
F2.2677020073899037
sS'right_e0'
p638
F0.962776832571409
sS'right_e1'
p639
F1.4679151832948563
ssS'-0.254'
p640
(dp641
S'right_s0'
p642
F-0.02724631299366642
sS'right_s1'
p643
F0.4291367182104828
sS'right_w0'
p644
F-0.8417581147376172
sS'right_w1'
p645
F-1.0556204847531596
sS'right_w2'
p646
F2.2677191625912805
sS'right_e0'
p647
F0.9627444623335144
sS'right_e1'
p648
F1.467835880732964
ssS'-0.255'
p649
(dp650
S'right_s0'
p651
F-0.02742350605848909
sS'right_s1'
p652
F0.429132331272454
sS'right_w0'
p653
F-0.8417800797584363
sS'right_w1'
p654
F-1.0555851080118632
sS'right_w2'
p655
F2.26770409631472
sS'right_e0'
p656
F0.9627713117642154
sS'right_e1'
p657
F1.4679511754215726
ssS'-0.393'
p658
(dp659
S'right_s0'
p660
F-0.20991520536348496
sS'right_s1'
p661
F0.3131789063258541
sS'right_w0'
p662
F-0.9860919930725673
sS'right_w1'
p663
F-0.9220504760812203
sS'right_w2'
p664
F2.510032235123255
sS'right_e0'
p665
F0.8781023195773026
sS'right_e1'
p666
F1.4345785108357578
ssS'-0.392'
p667
(dp668
S'right_s0'
p669
F-0.2142427877302586
sS'right_s1'
p670
F0.3101455721533945
sS'right_w0'
p671
F-0.9912762165201786
sS'right_w1'
p672
F-0.9187038629404384
sS'right_w2'
p673
F2.5189464895576332
sS'right_e0'
p674
F0.8762302603711335
sS'right_e1'
p675
F1.432188765771837
ssS'-0.258'
p676
(dp677
S'right_s0'
p678
F-0.045820159071764406
sS'right_s1'
p679
F0.4187670094400611
sS'right_w0'
p680
F-0.8527389578559017
sS'right_w1'
p681
F-1.0431056410901705
sS'right_w2'
p682
F2.2855104756084375
sS'right_e0'
p683
F0.9539771603250545
sS'right_e1'
p684
F1.4706754920803558
ssS'-0.259'
p685
(dp686
S'right_s0'
p687
F-0.0379760671520577
sS'right_s1'
p688
F0.42353963258965166
sS'right_w0'
p689
F-0.847502233893132
sS'right_w1'
p690
F-1.0489215277157449
sS'right_w2'
p691
F2.2769354361217093
sS'right_e0'
p692
F0.9579831653180948
sS'right_e1'
p693
F1.4692387014797372
ssS'-0.397'
p694
(dp695
S'right_s0'
p696
F-0.21057751582603235
sS'right_s1'
p697
F0.3129961878718399
sS'right_w0'
p698
F-0.9862533136224947
sS'right_w1'
p699
F-0.9219041586909045
sS'right_w2'
p700
F2.5103027277660104
sS'right_e0'
p701
F0.8778340351994727
sS'right_e1'
p702
F1.4342970596767444
ssS'-0.396'
p703
(dp704
S'right_s0'
p705
F-0.21037286426793855
sS'right_s1'
p706
F0.31301084812461344
sS'right_w0'
p707
F-0.9862422334495582
sS'right_w1'
p708
F-0.9218971223162127
sS'right_w2'
p709
F2.5103063724039103
sS'right_e0'
p710
F0.8778317798208004
sS'right_e1'
p711
F1.4342765829258806
ssS'-0.395'
p712
(dp713
S'right_s0'
p714
F-0.21019412803840432
sS'right_s1'
p715
F0.313047542362459
sS'right_w0'
p716
F-0.9862034431452456
sS'right_w1'
p717
F-0.9219086385581541
sS'right_w2'
p718
F2.5103159824136583
sS'right_e0'
p719
F0.8778797002990615
sS'right_e1'
p720
F1.434406434332935
ssS'-0.394'
p721
(dp722
S'right_s0'
p723
F-0.2100788948689729
sS'right_s1'
p724
F0.31308285379634526
sS'right_w0'
p725
F-0.9862772054352309
sS'right_w1'
p726
F-0.92187819905529
sS'right_w2'
p727
F2.510313390284276
sS'right_e0'
p728
F0.8779322627457438
sS'right_e1'
p729
F1.4344430446220136
ssS'-0.494'
p730
(dp731
S'right_s0'
p732
F-0.2862777265101544
sS'right_s1'
p733
F0.24581556561899642
sS'right_w0'
p734
F-1.1282445152190146
sS'right_w1'
p735
F-0.8498276306661117
sS'right_w2'
p736
F2.7480789210715777
sS'right_e0'
p737
F0.8283274608546298
sS'right_e1'
p738
F1.3366437841087873
ssS'-0.495'
p739
(dp740
S'right_s0'
p741
F-0.2863732178311107
sS'right_s1'
p742
F0.2458119894641877
sS'right_w0'
p743
F-1.1282296360382587
sS'right_w1'
p744
F-0.8498224749205923
sS'right_w2'
p745
F2.7480708949452737
sS'right_e0'
p746
F0.828297532092602
sS'right_e1'
p747
F1.3366089686200535
ssS'-0.496'
p748
(dp749
S'right_s0'
p750
F-0.2864867935433022
sS'right_s1'
p751
F0.2458087534025264
sS'right_w0'
p752
F-1.1282434297962425
sS'right_w1'
p753
F-0.8498139089366141
sS'right_w2'
p754
F2.7480684287651123
sS'right_e0'
p755
F0.8282841104059502
sS'right_e1'
p756
F1.336610193731918
ssS'-0.497'
p757
(dp758
S'right_s0'
p759
F-0.2907139408431922
sS'right_s1'
p760
F0.23880559329019185
sS'right_w0'
p761
F-1.148274336550858
sS'right_w1'
p762
F-0.8434443008972919
sS'right_w2'
p763
F2.7824039397207065
sS'right_e0'
p764
F0.821894577067247
sS'right_e1'
p765
F1.320590476483861
ssS'-0.559'
p766
(dp767
S'right_s0'
p768
F-0.30731026500554925
sS'right_s1'
p769
F0.21083073411759656
sS'right_w0'
p770
F-1.2362318316002074
sS'right_w1'
p771
F-0.8246923751509092
sS'right_w2'
p772
F2.9395256379371304
sS'right_e0'
p773
F0.7881821010848489
sS'right_e1'
p774
F1.2352940724984132
ssS'-0.491'
p775
(dp776
S'right_s0'
p777
F-0.28571909411255625
sS'right_s1'
p778
F0.2458348802626631
sS'right_w0'
p779
F-1.1282670117169227
sS'right_w1'
p780
F-0.8498222688599988
sS'right_w2'
p781
F2.748091868950013
sS'right_e0'
p782
F0.8284139147858438
sS'right_e1'
p783
F1.3366860163755092
ssS'-0.492'
p784
(dp785
S'right_s0'
p786
F-0.28598838270178284
sS'right_s1'
p787
F0.24583573666812697
sS'right_w0'
p788
F-1.1282565223166916
sS'right_w1'
p789
F-0.8498207094548542
sS'right_w2'
p790
F2.7480901205315487
sS'right_e0'
p791
F0.8283560866836286
sS'right_e1'
p792
F1.336661663865863
ssS'-0.493'
p793
(dp794
S'right_s0'
p795
F-0.2861298708027684
sS'right_s1'
p796
F0.24583001526417192
sS'right_w0'
p797
F-1.1282463645382537
sS'right_w1'
p798
F-0.8498174180881417
sS'right_w2'
p799
F2.748086647746778
sS'right_e0'
p800
F0.8283445356419197
sS'right_e1'
p801
F1.3366293976405945
ssS'-0.555'
p802
(dp803
S'right_s0'
p804
F-0.3071185067741986
sS'right_s1'
p805
F0.2108588029320968
sS'right_w0'
p806
F-1.236342866966666
sS'right_w1'
p807
F-0.8246922932918253
sS'right_w2'
p808
F2.9395323679455103
sS'right_e0'
p809
F0.7882596801097472
sS'right_e1'
p810
F1.2352994368038885
ssS'-0.554'
p811
(dp812
S'right_s0'
p813
F-0.30706736480098673
sS'right_s1'
p814
F0.2108404047021999
sS'right_w0'
p815
F-1.2363355853494449
sS'right_w1'
p816
F-0.8246323910519751
sS'right_w2'
p817
F2.939544268301683
sS'right_e0'
p818
F0.7882710194070262
sS'right_e1'
p819
F1.2353349019385682
ssS'-0.557'
p820
(dp821
S'right_s0'
p822
F-0.30724625767915814
sS'right_s1'
p823
F0.21084149742971814
sS'right_w0'
p824
F-1.2362395424645332
sS'right_w1'
p825
F-0.8246988548293732
sS'right_w2'
p826
F2.939537721911206
sS'right_e0'
p827
F0.7882045679073082
sS'right_e1'
p828
F1.2353051614905075
ssS'-0.556'
p829
(dp830
S'right_s0'
p831
F-0.3071785328512897
sS'right_s1'
p832
F0.21084910446417116
sS'right_w0'
p833
F-1.2363223701822275
sS'right_w1'
p834
F-0.8246763489700566
sS'right_w2'
p835
F2.939540409506364
sS'right_e0'
p836
F0.7882366860632803
sS'right_e1'
p837
F1.2353248292564052
ssS'-0.498'
p838
(dp839
S'right_s0'
p840
F-0.2900460907571052
sS'right_s1'
p841
F0.24036050409613363
sS'right_w0'
p842
F-1.1432543305729848
sS'right_w1'
p843
F-0.8449552109216114
sS'right_w2'
p844
F2.773720655859412
sS'right_e0'
p845
F0.8233955896602012
sS'right_e1'
p846
F1.3242148106677751
ssS'-0.499'
p847
(dp848
S'right_s0'
p849
F-0.2901768318203857
sS'right_s1'
p850
F0.2403367165038226
sS'right_w0'
p851
F-1.1432321121636289
sS'right_w1'
p852
F-0.8449087459642612
sS'right_w2'
p853
F2.7737736736707053
sS'right_e0'
p854
F0.8232873563383585
sS'right_e1'
p855
F1.324105231966822
ssS'-0.553'
p856
(dp857
S'right_s0'
p858
F-0.30697155183485947
sS'right_s1'
p859
F0.2108269627145578
sS'right_w0'
p860
F-1.236322910619803
sS'right_w1'
p861
F-0.8246677646454348
sS'right_w2'
p862
F2.939549623188446
sS'right_e0'
p863
F0.7882443290652903
sS'right_e1'
p864
F1.235283407047401
ssS'-0.552'
p865
(dp866
S'right_s0'
p867
F-0.30695211821658397
sS'right_s1'
p868
F0.21082662946726938
sS'right_w0'
p869
F-1.2364023306703258
sS'right_w1'
p870
F-0.8246719563326064
sS'right_w2'
p871
F2.9395378485443473
sS'right_e0'
p872
F0.788287271424573
sS'right_e1'
p873
F1.2353104316510732
ssS'-0.382'
p874
(dp875
S'right_s0'
p876
F-0.1956406880051098
sS'right_s1'
p877
F0.32393721502687
sS'right_w0'
p878
F-0.968929514563782
sS'right_w1'
p879
F-0.9342719641374009
sS'right_w2'
p880
F2.4809504496311465
sS'right_e0'
p881
F0.8853683528990084
sS'right_e1'
p882
F1.4433416640044499
ssS'-0.383'
p883
(dp884
S'right_s0'
p885
F-0.1956798916317135
sS'right_s1'
p886
F0.32395805253420296
sS'right_w0'
p887
F-0.9689080613534014
sS'right_w1'
p888
F-0.9342877263121672
sS'right_w2'
p889
F2.480949210195096
sS'right_e0'
p890
F0.8853600376408295
sS'right_e1'
p891
F1.443273734963955
ssS'-0.087'
p892
(dp893
S'right_s0'
p894
F0.2871866321376624
sS'right_s1'
p895
F0.5486232127550474
sS'right_w0'
p896
F-0.7386711774638703
sS'right_w1'
p897
F-1.183022187658775
sS'right_w2'
p898
F2.121850262136924
sS'right_e0'
p899
F1.1065454054701567
sS'right_e1'
p900
F1.3535734933511634
ssS'-0.086'
p901
(dp902
S'right_s0'
p903
F0.28768017207510965
sS'right_s1'
p904
F0.548687211473144
sS'right_w0'
p905
F-0.7386458929585764
sS'right_w1'
p906
F-1.1830158587027562
sS'right_w2'
p907
F2.121835910936408
sS'right_e0'
p908
F1.1067224955371193
sS'right_e1'
p909
F1.3534936673531055
ssS'-0.085'
p910
(dp911
S'right_s0'
p912
F0.28768017207510965
sS'right_s1'
p913
F0.548687211473144
sS'right_w0'
p914
F-0.7386458929585764
sS'right_w1'
p915
F-1.1830158587027562
sS'right_w2'
p916
F2.121835910936408
sS'right_e0'
p917
F1.1067224955371193
sS'right_e1'
p918
F1.3534936673531055
ssS'-0.084'
p919
(dp920
S'right_s0'
p921
F0.2791083975205622
sS'right_s1'
p922
F0.5465892909054141
sS'right_w0'
p923
F-0.740901651883423
sS'right_w1'
p924
F-1.1809558259257444
sS'right_w2'
p925
F2.124177735402189
sS'right_e0'
p926
F1.102784511705141
sS'right_e1'
p927
F1.3585717693165205
ssS'-0.083'
p928
(dp929
S'right_s0'
p930
F0.30381596593731075
sS'right_s1'
p931
F0.5530993186382771
sS'right_w0'
p932
F-0.7344025831193344
sS'right_w1'
p933
F-1.1874633967166677
sS'right_w2'
p934
F2.1179287491898826
sS'right_e0'
p935
F1.1146726661743687
sS'right_e1'
p936
F1.343824097654437
ssS'-0.082'
p937
(dp938
S'right_s0'
p939
F0.3042316577603055
sS'right_s1'
p940
F0.553088339541981
sS'right_w0'
p941
F-0.734416688615438
sS'right_w1'
p942
F-1.1874206840508688
sS'right_w2'
p943
F2.1179363043243598
sS'right_e0'
p944
F1.1147294944270847
sS'right_e1'
p945
F1.3438610706404406
ssS'-0.081'
p946
(dp947
S'right_s0'
p948
F0.3042316577603055
sS'right_s1'
p949
F0.553088339541981
sS'right_w0'
p950
F-0.734416688615438
sS'right_w1'
p951
F-1.1874206840508688
sS'right_w2'
p952
F2.1179363043243598
sS'right_e0'
p953
F1.1147294944270847
sS'right_e1'
p954
F1.3438610706404406
ssS'-0.379'
p955
(dp956
S'right_s0'
p957
F-0.19547738063448428
sS'right_s1'
p958
F0.3239897448765001
sS'right_w0'
p959
F-0.9688713992833122
sS'right_w1'
p960
F-0.9343557380443697
sS'right_w2'
p961
F2.4808814003434296
sS'right_e0'
p962
F0.8855683417392699
sS'right_e1'
p963
F1.443447864827597
ssS'-0.089'
p964
(dp965
S'right_s0'
p966
F0.2868007808629356
sS'right_s1'
p967
F0.5486037194548627
sS'right_w0'
p968
F-0.7386389806944393
sS'right_w1'
p969
F-1.1830356629811636
sS'right_w2'
p970
F2.1218498190644137
sS'right_e0'
p971
F1.1064615038057433
sS'right_e1'
p972
F1.3534839434445045
ssS'-0.088'
p973
(dp974
S'right_s0'
p975
F0.2869779256399987
sS'right_s1'
p976
F0.548610138155265
sS'right_w0'
p977
F-0.738669598448169
sS'right_w1'
p978
F-1.1830068208071225
sS'right_w2'
p979
F2.1218501407258508
sS'right_e0'
p980
F1.106494214227241
sS'right_e1'
p981
F1.353526474988235
ssS'-0.549'
p982
(dp983
S'right_s0'
p984
F-0.3057881723743394
sS'right_s1'
p985
F0.21527497183541033
sS'right_w0'
p986
F-1.2204739944570218
sS'right_w1'
p987
F-0.8268157013820208
sS'right_w2'
p988
F2.9104646713319866
sS'right_e0'
p989
F0.7945916045754409
sS'right_e1'
p990
F1.2518279413102356
ssS'-0.378'
p991
(dp992
S'right_s0'
p993
F-0.20021673938955373
sS'right_s1'
p994
F0.3209770507698768
sS'right_w0'
p995
F-0.9737713944011568
sS'right_w1'
p996
F-0.9309523248575783
sS'right_w2'
p997
F2.4894334878654942
sS'right_e0'
p998
F0.8835171539156966
sS'right_e1'
p999
F1.4414199813043842
ssS'-0.572'
p1000
(dp1001
S'right_s0'
p1002
F-0.3087775503002943
sS'right_s1'
p1003
F0.20270238288895204
sS'right_w0'
p1004
F-1.267933294296001
sS'right_w1'
p1005
F-0.8218372201108535
sS'right_w2'
p1006
F2.999017625520363
sS'right_e0'
p1007
F0.7746375675009505
sS'right_e1'
p1008
F1.2000107157809987
ssS'-0.58'
p1009
(dp1010
S'right_s0'
p1011
F-0.3088305432871694
sS'right_s1'
p1012
F0.19911972647275977
sS'right_w0'
p1013
F-1.2838672217734945
sS'right_w1'
p1014
F-0.8210947563777999
sS'right_w2'
p1015
F3.029486006466769
sS'right_e0'
p1016
F0.7673933635507879
sS'right_e1'
p1017
F1.1811544728113335
ssS'-0.173'
p1018
(dp1019
S'right_s0'
p1020
F0.10979704699860449
sS'right_s1'
p1021
F0.49021402318800344
sS'right_w0'
p1022
F-0.7874370338512025
sS'right_w1'
p1023
F-1.1236476948963308
sS'right_w2'
p1024
F2.1832701020247534
sS'right_e0'
p1025
F1.0235083692342144
sS'right_e1'
p1026
F1.4338482319705852
ssS'-0.172'
p1027
(dp1028
S'right_s0'
p1029
F0.10095272329225119
sS'right_s1'
p1030
F0.4864621829587341
sS'right_w0'
p1031
F-0.7908804932559794
sS'right_w1'
p1032
F-1.1194361709778815
sS'right_w2'
p1033
F2.1885297106261588
sS'right_e0'
p1034
F1.0189322926300683
sS'right_e1'
p1035
F1.4379623328381053
ssS'-0.171'
p1036
(dp1037
S'right_s0'
p1038
F0.120479804784563
sS'right_s1'
p1039
F0.49417542986945584
sS'right_w0'
p1040
F-0.7843626691083863
sS'right_w1'
p1041
F-1.1275771336431113
sS'right_w2'
p1042
F2.178623925425283
sS'right_e0'
p1043
F1.0280063250163574
sS'right_e1'
p1044
F1.4304827764585273
ssS'-0.177'
p1045
(dp1046
S'right_s0'
p1047
F0.10932317796363744
sS'right_s1'
p1048
F0.4901737741095218
sS'right_w0'
p1049
F-0.7875953697757136
sS'right_w1'
p1050
F-1.1233259996533809
sS'right_w2'
p1051
F2.183431733416816
sS'right_e0'
p1052
F1.0230656190715344
sS'right_e1'
p1053
F1.4341994602428283
ssS'-0.176'
p1054
(dp1055
S'right_s0'
p1056
F0.10942122254121678
sS'right_s1'
p1057
F0.4901294897928272
sS'right_w0'
p1058
F-0.7876101627804939
sS'right_w1'
p1059
F-1.1233146804202754
sS'right_w2'
p1060
F2.183436741326112
sS'right_e0'
p1061
F1.023107846466969
sS'right_e1'
p1062
F1.4342285851946972
ssS'-0.175'
p1063
(dp1064
S'right_s0'
p1065
F0.10942122254121678
sS'right_s1'
p1066
F0.4901294897928272
sS'right_w0'
p1067
F-0.7876101627804939
sS'right_w1'
p1068
F-1.1233146804202754
sS'right_w2'
p1069
F2.183436741326112
sS'right_e0'
p1070
F1.023107846466969
sS'right_e1'
p1071
F1.4342285851946972
ssS'-0.174'
p1072
(dp1073
S'right_s0'
p1074
F0.1095806685457541
sS'right_s1'
p1075
F0.490089555115893
sS'right_w0'
p1076
F-0.7875925054938522
sS'right_w1'
p1077
F-1.1234056174283058
sS'right_w2'
p1078
F2.183443599441162
sS'right_e0'
p1079
F1.0232028055534954
sS'right_e1'
p1080
F1.4341051314493738
ssS'-0.179'
p1081
(dp1082
S'right_s0'
p1083
F0.08792344264285287
sS'right_s1'
p1084
F0.48121529491258236
sS'right_w0'
p1085
F-0.7953171168775321
sS'right_w1'
p1086
F-1.113712627059539
sS'right_w2'
p1087
F2.1950310533906987
sS'right_e0'
p1088
F1.0130190793037182
sS'right_e1'
p1089
F1.4423397127334168
ssS'-0.178'
p1090
(dp1091
S'right_s0'
p1092
F0.10924278187795355
sS'right_s1'
p1093
F0.4901922360873563
sS'right_w0'
p1094
F-0.7875889045627336
sS'right_w1'
p1095
F-1.1233311272009878
sS'right_w2'
p1096
F2.1834284547402003
sS'right_e0'
p1097
F1.0230162590757494
sS'right_e1'
p1098
F1.434200751265279
ssS'-0.148'
p1099
(dp1100
S'right_s0'
p1101
F0.16081121845480428
sS'right_s1'
p1102
F0.5092452273626096
sS'right_w0'
p1103
F-0.7722931916232287
sS'right_w1'
p1104
F-1.143131329666324
sS'right_w2'
p1105
F2.161408990059414
sS'right_e0'
p1106
F1.0466548208132327
sS'right_e1'
p1107
F1.4149931092568417
ssS'-0.375'
p1108
(dp1109
S'right_s0'
p1110
F-0.18913929210396319
sS'right_s1'
p1111
F0.328761763241614
sS'right_w0'
p1112
F-0.9616031175150486
sS'right_w1'
p1113
F-0.939721055595939
sS'right_w2'
p1114
F2.4686321307653536
sS'right_e0'
p1115
F0.8887380115480443
sS'right_e1'
p1116
F1.4468952109687372
ssS'-0.374'
p1117
(dp1118
S'right_s0'
p1119
F-0.1890983525990606
sS'right_s1'
p1120
F0.3287690276065751
sS'right_w0'
p1121
F-0.9616587232898999
sS'right_w1'
p1122
F-0.9397120000148433
sS'right_w2'
p1123
F2.4686267735307226
sS'right_e0'
p1124
F0.8887769517423303
sS'right_e1'
p1125
F1.4469157480004071
ssS'-0.078'
p1126
(dp1127
S'right_s0'
p1128
F0.30522262037453984
sS'right_s1'
p1129
F0.5531260428118125
sS'right_w0'
p1130
F-0.7344067155519607
sS'right_w1'
p1131
F-1.1874024983476223
sS'right_w2'
p1132
F2.1179169888186884
sS'right_e0'
p1133
F1.1150256974660753
sS'right_e1'
p1134
F1.343841092704671
ssS'-0.026'
p1135
(dp1136
S'right_s0'
p1137
F0.43442279377977666
sS'right_s1'
p1138
F0.5795238150102087
sS'right_w0'
p1139
F-0.7050967332194613
sS'right_w1'
p1140
F-1.2119298821722513
sS'right_w2'
p1141
F2.0985711090727257
sS'right_e0'
p1142
F1.1764198161093704
sS'right_e1'
p1143
F1.2637715875268265
ssS'-0.371'
p1144
(dp1145
S'right_s0'
p1146
F-0.18265065739805486
sS'right_s1'
p1147
F0.3336393933986814
sS'right_w0'
p1148
F-0.9544630852845293
sS'right_w1'
p1149
F-0.94524258034129
sS'right_w2'
p1150
F2.456482172380042
sS'right_e0'
p1151
F0.8919721449443214
sS'right_e1'
p1152
F1.450118601691667
ssS'-0.579'
p1153
(dp1154
S'right_s0'
p1155
F-0.30881287120455525
sS'right_s1'
p1156
F0.19912566153132083
sS'right_w0'
p1157
F-1.2836980956936275
sS'right_w1'
p1158
F-0.8211230657360575
sS'right_w2'
p1159
F3.0292051017776345
sS'right_e0'
p1160
F0.7675045688186408
sS'right_e1'
p1161
F1.181341484245288
ssS'-0.373'
p1162
(dp1163
S'right_s0'
p1164
F-0.18909568465613713
sS'right_s1'
p1165
F0.3288723359840926
sS'right_w0'
p1166
F-0.9614935665718889
sS'right_w1'
p1167
F-0.9398788381256908
sS'right_w2'
p1168
F2.468366188162067
sS'right_e0'
p1169
F0.8889128505165385
sS'right_e1'
p1170
F1.446972577174325
ssS'-0.372'
p1171
(dp1172
S'right_s0'
p1173
F-0.1939823353100861
sS'right_s1'
p1174
F0.32571513018387355
sS'right_w0'
p1175
F-0.9665226221432527
sS'right_w1'
p1176
F-0.9362589334163399
sS'right_w2'
p1177
F2.477120406996589
sS'right_e0'
p1178
F0.8867099798253403
sS'right_e1'
p1179
F1.4450074408832159
ssS'-0.072'
p1180
(dp1181
S'right_s0'
p1182
F0.3228342281032086
sS'right_s1'
p1183
F0.557453635734352
sS'right_w0'
p1184
F-0.7301397581299849
sS'right_w1'
p1185
F-1.191665432471349
sS'right_w2'
p1186
F2.1142079359518586
sS'right_e0'
p1187
F1.1234485142962312
sS'right_e1'
p1188
F1.333695085846129
ssS'-0.073'
p1189
(dp1190
S'right_s0'
p1191
F0.3224342639303508
sS'right_s1'
p1192
F0.557446006948811
sS'right_w0'
p1193
F-0.7301086231814038
sS'right_w1'
p1194
F-1.1916792984355107
sS'right_w2'
p1195
F2.1142037140362326
sS'right_e0'
p1196
F1.1233601350792597
sS'right_e1'
p1197
F1.333605733016034
ssS'-0.071'
p1198
(dp1199
S'right_s0'
p1200
F0.3228342281032086
sS'right_s1'
p1201
F0.557453635734352
sS'right_w0'
p1202
F-0.7301397581299849
sS'right_w1'
p1203
F-1.191665432471349
sS'right_w2'
p1204
F2.1142079359518586
sS'right_e0'
p1205
F1.1234485142962312
sS'right_e1'
p1206
F1.333695085846129
ssS'-0.076'
p1207
(dp1208
S'right_s0'
p1209
F0.2967516837863479
sS'right_s1'
p1210
F0.5511765142304003
sS'right_w0'
p1211
F-0.7365966624220971
sS'right_w1'
p1212
F-1.185518922948365
sS'right_w2'
p1213
F2.120067976263583
sS'right_e0'
p1214
F1.1111474967225639
sS'right_e1'
p1215
F1.3489960682705975
ssS'-0.077'
p1216
(dp1217
S'right_s0'
p1218
F0.30522262037453984
sS'right_s1'
p1219
F0.5531260428118125
sS'right_w0'
p1220
F-0.7344067155519607
sS'right_w1'
p1221
F-1.1874024983476223
sS'right_w2'
p1222
F2.1179169888186884
sS'right_e0'
p1223
F1.1150256974660753
sS'right_e1'
p1224
F1.343841092704671
ssS'-0.074'
p1225
(dp1226
S'right_s0'
p1227
F0.3224342639303508
sS'right_s1'
p1228
F0.557446006948811
sS'right_w0'
p1229
F-0.7301086231814038
sS'right_w1'
p1230
F-1.1916792984355107
sS'right_w2'
p1231
F2.1142037140362326
sS'right_e0'
p1232
F1.1233601350792597
sS'right_e1'
p1233
F1.333605733016034
ssS'-0.075'
p1234
(dp1235
S'right_s0'
p1236
F0.32206430465830227
sS'right_s1'
p1237
F0.5574404849381196
sS'right_w0'
p1238
F-0.7300934967313104
sS'right_w1'
p1239
F-1.1916960591767838
sS'right_w2'
p1240
F2.1141973481587186
sS'right_e0'
p1241
F1.1233127985878193
sS'right_e1'
p1242
F1.3335515487514886
ssS'-0.52'
p1243
(dp1244
S'right_s0'
p1245
F-0.2980290471076019
sS'right_s1'
p1246
F0.2298407546177792
sS'right_w0'
p1247
F-1.1737997178492172
sS'right_w1'
p1248
F-0.8362432478266228
sS'right_w2'
p1249
F2.8267523003822568
sS'right_e0'
p1250
F0.8123791937034319
sS'right_e1'
p1251
F1.2971430781531623
ssS'-0.146'
p1252
(dp1253
S'right_s0'
p1254
F0.1613208802427053
sS'right_s1'
p1255
F0.5094566205126716
sS'right_w0'
p1256
F-0.7721915216519868
sS'right_w1'
p1257
F-1.1432030636618666
sS'right_w2'
p1258
F2.1612912334084005
sS'right_e0'
p1259
F1.0468193737911315
sS'right_e1'
p1260
F1.4147988875147304
ssS'-0.147'
p1261
(dp1262
S'right_s0'
p1263
F0.16114389645413763
sS'right_s1'
p1264
F0.5093668084343763
sS'right_w0'
p1265
F-0.7722611654352427
sS'right_w1'
p1266
F-1.1431264307703692
sS'right_w2'
p1267
F2.1613755877473473
sS'right_e0'
p1268
F1.0467517262328556
sS'right_e1'
p1269
F1.414915602521023
ssS'-0.106'
p1270
(dp1271
S'right_s0'
p1272
F0.2520446061817898
sS'right_s1'
p1273
F0.5390832715667271
sS'right_w0'
p1274
F-0.7471974581106808
sS'right_w1'
p1275
F-1.1736181410021933
sS'right_w2'
p1276
F2.1306148505061664
sS'right_e0'
p1277
F1.0900149438750404
sS'right_e1'
p1278
F1.3717459250382946
ssS'-0.107'
p1279
(dp1280
S'right_s0'
p1281
F0.25170270483277246
sS'right_s1'
p1282
F0.5390618415248021
sS'right_w0'
p1283
F-0.7471890895073772
sS'right_w1'
p1284
F-1.1736278030076903
sS'right_w2'
p1285
F2.130609680283552
sS'right_e0'
p1286
F1.089993824663508
sS'right_e1'
p1287
F1.3717214883337405
ssS'-0.104'
p1288
(dp1289
S'right_s0'
p1290
F0.2524186731917384
sS'right_s1'
p1291
F0.5390906772979216
sS'right_w0'
p1292
F-0.7472405539381457
sS'right_w1'
p1293
F-1.1735947344496775
sS'right_w2'
p1294
F2.1306182983312123
sS'right_e0'
p1295
F1.0900543128674407
sS'right_e1'
p1296
F1.371825190980612
ssS'-0.105'
p1297
(dp1298
S'right_s0'
p1299
F0.2520446061817898
sS'right_s1'
p1300
F0.5390832715667271
sS'right_w0'
p1301
F-0.7471974581106808
sS'right_w1'
p1302
F-1.1736181410021933
sS'right_w2'
p1303
F2.1306148505061664
sS'right_e0'
p1304
F1.0900149438750404
sS'right_e1'
p1305
F1.3717459250382946
ssS'-0.102'
p1306
(dp1307
S'right_s0'
p1308
F0.2528946460010184
sS'right_s1'
p1309
F0.5391100955126413
sS'right_w0'
p1310
F-0.7472493000230855
sS'right_w1'
p1311
F-1.1735320699741587
sS'right_w2'
p1312
F2.13062350482935
sS'right_e0'
p1313
F1.0901808002071194
sS'right_e1'
p1314
F1.3718466572999457
ssS'-0.103'
p1315
(dp1316
S'right_s0'
p1317
F0.2528946460010184
sS'right_s1'
p1318
F0.5391100955126413
sS'right_w0'
p1319
F-0.7472493000230855
sS'right_w1'
p1320
F-1.1735320699741587
sS'right_w2'
p1321
F2.13062350482935
sS'right_e0'
p1322
F1.0901808002071194
sS'right_e1'
p1323
F1.3718466572999457
ssS'-0.101'
p1324
(dp1325
S'right_s0'
p1326
F0.2534099201775053
sS'right_s1'
p1327
F0.5392441533197028
sS'right_w0'
p1328
F-0.7471628995021851
sS'right_w1'
p1329
F-1.173645878397866
sS'right_w2'
p1330
F2.1305341020962736
sS'right_e0'
p1331
F1.090402811289949
sS'right_e1'
p1332
F1.371681589442714
ssS'-0.528'
p1333
(dp1334
S'right_s0'
p1335
F-0.30094517848291336
sS'right_s1'
p1336
F0.2248246734823569
sS'right_w0'
p1337
F-1.189248507688669
sS'right_w1'
p1338
F-0.8326360198562215
sS'right_w2'
p1339
F2.8540979546359875
sS'right_e0'
p1340
F0.8067352871912963
sS'right_e1'
p1341
F1.2827408768999131
ssS'-0.108'
p1342
(dp1343
S'right_s0'
p1344
F0.22760172185657943
sS'right_s1'
p1345
F0.5318499699608273
sS'right_w0'
p1346
F-0.7539256428131668
sS'right_w1'
p1347
F-1.1661620550756144
sS'right_w2'
p1348
F2.1382061692686403
sS'right_e0'
p1349
F1.0783805894271403
sS'right_e1'
p1350
F1.384929938384604
ssS'-0.109'
p1351
(dp1352
S'right_s0'
p1353
F0.23615402037834166
sS'right_s1'
p1354
F0.534216098530786
sS'right_w0'
p1355
F-0.7515693699717882
sS'right_w1'
p1356
F-1.1685620332020124
sS'right_w2'
p1357
F2.1353843321736647
sS'right_e0'
p1358
F1.0822923329509555
sS'right_e1'
p1359
F1.3803162096580754
ssS'-0.28'
p1360
(dp1361
S'right_s0'
p1362
F-0.06612330595870475
sS'right_s1'
p1363
F0.4084690902459016
sS'right_w0'
p1364
F-0.8630572062271842
sS'right_w1'
p1365
F-1.0313715512441561
sS'right_w2'
p1366
F2.302129136756319
sS'right_e0'
p1367
F0.9459023762479681
sS'right_e1'
p1368
F1.4712277462725707
ssS'-0.29'
p1369
(dp1370
S'right_s0'
p1371
F-0.08381331853103013
sS'right_s1'
p1372
F0.39860344626664546
sS'right_w0'
p1373
F-0.8738312840194622
sS'right_w1'
p1374
F-1.0196773924602702
sS'right_w2'
p1375
F2.3197675225063534
sS'right_e0'
p1376
F0.9382023453993851
sS'right_e1'
p1377
F1.4713275922295272
ssS'-0.24'
p1378
(dp1379
S'right_s0'
p1380
F-0.006146318876242063
sS'right_s1'
p1381
F0.4396944599209238
sS'right_w0'
p1382
F-0.8314243553668819
sS'right_w1'
p1383
F-1.0679767310411403
sS'right_w2'
p1384
F2.2512886007903923
sS'right_e0'
p1385
F0.9719435273509376
sS'right_e1'
p1386
F1.464551019361414
ssS'-0.25'
p1387
(dp1388
S'right_s0'
p1389
F-0.017361372079218285
sS'right_s1'
p1390
F0.4341290896997574
sS'right_w0'
p1391
F-0.8369633212942897
sS'right_w1'
p1392
F-1.0612489486741419
sS'right_w2'
p1393
F2.2599603963085855
sS'right_e0'
p1394
F0.967083796121659
sS'right_e1'
p1395
F1.4665341225305308
ssS'-0.26'
p1396
(dp1397
S'right_s0'
p1398
F-0.0379760671520577
sS'right_s1'
p1399
F0.42353963258965166
sS'right_w0'
p1400
F-0.847502233893132
sS'right_w1'
p1401
F-1.0489215277157449
sS'right_w2'
p1402
F2.2769354361217093
sS'right_e0'
p1403
F0.9579831653180948
sS'right_e1'
p1404
F1.4692387014797372
ssS'-0.27'
p1405
(dp1406
S'right_s0'
p1407
F-0.06398900932516859
sS'right_s1'
p1408
F0.40899528529131624
sS'right_w0'
p1409
F-0.862879332185266
sS'right_w1'
p1410
F-1.0317361795290148
sS'right_w2'
p1411
F2.302116493698009
sS'right_e0'
p1412
F0.9461286938109417
sS'right_e1'
p1413
F1.4716481201274687
ssS'-0.21'
p1414
(dp1415
S'right_s0'
p1416
F0.04964166529071257
sS'right_s1'
p1417
F0.46512721453030537
sS'right_w0'
p1418
F-0.8083424688975054
sS'right_w1'
p1419
F-1.096695011286978
sS'right_w2'
p1420
F2.2150808310012966
sS'right_e0'
p1421
F0.9961905536109414
sS'right_e1'
p1422
F1.4525346463300304
ssS'-0.22'
p1423
(dp1424
S'right_s0'
p1425
F0.02779987898630054
sS'right_s1'
p1426
F0.4554483379512284
sS'right_w0'
p1427
F-0.8169214539092096
sS'right_w1'
p1428
F-1.0858935524737747
sS'right_w2'
p1429
F2.228513203022782
sS'right_e0'
p1430
F0.9867134415959198
sS'right_e1'
p1431
F1.45782187101866
ssS'-0.23'
p1432
(dp1433
S'right_s0'
p1434
F0.015580213348794558
sS'right_s1'
p1435
F0.45013408340603966
sS'right_w0'
p1436
F-0.8216730789192663
sS'right_w1'
p1437
F-1.0799312867941886
sS'right_w2'
p1438
F2.2358918971189468
sS'right_e0'
p1439
F0.9815290747946399
sS'right_e1'
p1440
F1.4604290735897747
ssS'-0.511'
p1441
(dp1442
S'right_s0'
p1443
F-0.29446513875251323
sS'right_s1'
p1444
F0.23498350834205795
sS'right_w0'
p1445
F-1.158488559531702
sS'right_w1'
p1446
F-0.840315518508409
sS'right_w2'
p1447
F2.8001525468314075
sS'right_e0'
p1448
F0.8178272014957972
sS'right_e1'
p1449
F1.3108993418815373
ssS'-0.513'
p1450
(dp1451
S'right_s0'
p1452
F-0.29469909846330733
sS'right_s1'
p1453
F0.23497144263570569
sS'right_w0'
p1454
F-1.1584783838081618
sS'right_w1'
p1455
F-0.8403316328907326
sS'right_w2'
p1456
F2.8001386690876178
sS'right_e0'
p1457
F0.8177620819833757
sS'right_e1'
p1458
F1.31089827313731
ssS'-0.512'
p1459
(dp1460
S'right_s0'
p1461
F-0.29458820899652505
sS'right_s1'
p1462
F0.23497831518035195
sS'right_w0'
p1463
F-1.1584803608560144
sS'right_w1'
p1464
F-0.840340199877029
sS'right_w2'
p1465
F2.8001370531981955
sS'right_e0'
p1466
F0.8177923275721586
sS'right_e1'
p1467
F1.3109022639924826
ssS'-0.515'
p1468
(dp1469
S'right_s0'
p1470
F-0.297978881681713
sS'right_s1'
p1471
F0.22836410082265118
sS'right_w0'
p1472
F-1.1786527963428515
sS'right_w1'
p1473
F-0.8352364997861523
sS'right_w2'
p1474
F2.8354134611154667
sS'right_e0'
p1475
F0.8111013079976617
sS'right_e1'
p1476
F1.2934351442849474
ssS'-0.514'
p1477
(dp1478
S'right_s0'
p1479
F-0.29481309438774606
sS'right_s1'
p1480
F0.23497820511039347
sS'right_w0'
p1481
F-1.1584801303439267
sS'right_w1'
p1482
F-0.8403274221434884
sS'right_w2'
p1483
F2.800135754313761
sS'right_e0'
p1484
F0.8177387490192753
sS'right_e1'
p1485
F1.3108679969802726
ssS'-0.517'
p1486
(dp1487
S'right_s0'
p1488
F-0.2976316022019736
sS'right_s1'
p1489
F0.22980650308379413
sS'right_w0'
p1490
F-1.1737268650364134
sS'right_w1'
p1491
F-0.8363140004249443
sS'right_w2'
p1492
F2.8267614319280927
sS'right_e0'
p1493
F0.8124935115973067
sS'right_e1'
p1494
F1.2971427453340354
ssS'-0.516'
p1495
(dp1496
S'right_s0'
p1497
F-0.2975087850344815
sS'right_s1'
p1498
F0.2298011518080223
sS'right_w0'
p1499
F-1.1737154193109216
sS'right_w1'
p1500
F-0.8363899119607971
sS'right_w2'
p1501
F2.826701731177561
sS'right_e0'
p1502
F0.8126068261204864
sS'right_e1'
p1503
F1.2973160995095059
ssS'-0.519'
p1504
(dp1505
S'right_s0'
p1506
F-0.29789172793731034
sS'right_s1'
p1507
F0.22983255059382568
sS'right_w0'
p1508
F-1.1737604591386201
sS'right_w1'
p1509
F-0.8362780057377632
sS'right_w2'
p1510
F2.8267505842911618
sS'right_e0'
p1511
F0.8124169941434962
sS'right_e1'
p1512
F1.297152656405757
ssS'-0.518'
p1513
(dp1514
S'right_s0'
p1515
F-0.29777864515382557
sS'right_s1'
p1516
F0.22980422504666098
sS'right_w0'
p1517
F-1.173767923641356
sS'right_w1'
p1518
F-0.836287627286576
sS'right_w2'
p1519
F2.8267484846863695
sS'right_e0'
p1520
F0.8124514413882773
sS'right_e1'
p1521
F1.2972359980111756
ssS'-0.458'
p1522
(dp1523
S'right_s0'
p1524
F-0.26344557796688406
sS'right_s1'
p1525
F0.2697886116707071
sS'right_w0'
p1526
F-1.0693837285508803
sS'right_w1'
p1527
F-0.8739170163043362
sS'right_w2'
p1528
F2.6488243879018825
sS'right_e0'
p1529
F0.848161426021603
sS'right_e1'
p1530
F1.3816865141521122
ssS'-0.459'
p1531
(dp1532
S'right_s0'
p1533
F-0.26360928643670967
sS'right_s1'
p1534
F0.26976258035198075
sS'right_w0'
p1535
F-1.0693548000130182
sS'right_w1'
p1536
F-0.8739487407058109
sS'right_w2'
p1537
F2.6488120022982855
sS'right_e0'
p1538
F0.8481391311675459
sS'right_e1'
p1539
F1.3816755716158786
ssS'-0.451'
p1540
(dp1541
S'right_s0'
p1542
F-0.26402201891677174
sS'right_s1'
p1543
F0.26805598219467014
sS'right_w0'
p1544
F-1.0745697776826686
sS'right_w1'
p1545
F-0.8715309084825145
sS'right_w2'
p1546
F2.6573924370163153
sS'right_e0'
p1547
F0.8467124013899816
sS'right_e1'
p1548
F1.3789227668639354
ssS'-0.452'
p1549
(dp1550
S'right_s0'
p1551
F-0.26223291939584037
sS'right_s1'
p1552
F0.27009227018583193
sS'right_w0'
p1553
F-1.0693165833103029
sS'right_w1'
p1554
F-0.8739659407694811
sS'right_w2'
p1555
F2.64856424104884
sS'right_e0'
p1556
F0.8483166912236042
sS'right_e1'
p1557
F1.3820012913382094
ssS'-0.453'
p1558
(dp1559
S'right_s0'
p1560
F-0.2624857060164043
sS'right_s1'
p1561
F0.2699546476329928
sS'right_w0'
p1562
F-1.0694973503291205
sS'right_w1'
p1563
F-0.8738685717275176
sS'right_w2'
p1564
F2.648838027372461
sS'right_e0'
p1565
F0.8482452807939413
sS'right_e1'
p1566
F1.3818254987606933
ssS'-0.454'
p1567
(dp1568
S'right_s0'
p1569
F-0.26272490275834937
sS'right_s1'
p1570
F0.2698812104169095
sS'right_w0'
p1571
F-1.0694261871193342
sS'right_w1'
p1572
F-0.8738757501423207
sS'right_w2'
p1573
F2.648838625423622
sS'right_e0'
p1574
F0.8482086349432523
sS'right_e1'
p1575
F1.3818206868336453
ssS'-0.377'
p1576
(dp1577
S'right_s0'
p1578
F-0.18924447014723444
sS'right_s1'
p1579
F0.328756704213542
sS'right_w0'
p1580
F-0.961645534612293
sS'right_w1'
p1581
F-0.9397354378489107
sS'right_w2'
p1582
F2.468617674324207
sS'right_e0'
p1583
F0.8886352363565724
sS'right_e1'
p1584
F1.4468322578156805
ssS'-0.456'
p1585
(dp1586
S'right_s0'
p1587
F-0.2630761933754915
sS'right_s1'
p1588
F0.2698268637015433
sS'right_w0'
p1589
F-1.0693962207109413
sS'right_w1'
p1590
F-0.8738933993596643
sS'right_w2'
p1591
F2.648827725316078
sS'right_e0'
p1592
F0.8481817356318624
sS'right_e1'
p1593
F1.3817535826515819
ssS'-0.457'
p1594
(dp1595
S'right_s0'
p1596
F-0.2632713790669339
sS'right_s1'
p1597
F0.2698023426237288
sS'right_w0'
p1598
F-1.0693843495441495
sS'right_w1'
p1599
F-0.8739274715445493
sS'right_w2'
p1600
F2.6488218897561495
sS'right_e0'
p1601
F0.8481701497867471
sS'right_e1'
p1602
F1.3817261391046065
ssS'-0.079'
p1603
(dp1604
S'right_s0'
p1605
F0.3046530491021304
sS'right_s1'
p1606
F0.553096350822492
sS'right_w0'
p1607
F-0.7344528939174131
sS'right_w1'
p1608
F-1.1874063962614443
sS'right_w2'
p1609
F2.1179352629824955
sS'right_e0'
p1610
F1.1148290833927081
sS'right_e1'
p1611
F1.3439741076212002
ssS'-0.522'
p1612
(dp1613
S'right_s0'
p1614
F-0.298220881856718
sS'right_s1'
p1615
F0.22985157941879386
sS'right_w0'
p1616
F-1.173791895244852
sS'right_w1'
p1617
F-0.8362472274619872
sS'right_w2'
p1618
F2.826732732224638
sS'right_e0'
p1619
F0.8123361588123741
sS'right_e1'
p1620
F1.2971092801157322
ssS'-0.523'
p1621
(dp1622
S'right_s0'
p1623
F-0.2982619216228466
sS'right_s1'
p1624
F0.2298511081146133
sS'right_w0'
p1625
F-1.1737993328173637
sS'right_w1'
p1626
F-0.8362469034712765
sS'right_w2'
p1627
F2.8267303372410435
sS'right_e0'
p1628
F0.8123269472376027
sS'right_e1'
p1629
F1.2971163174742397
ssS'-0.209'
p1630
(dp1631
S'right_s0'
p1632
F0.04964166529071257
sS'right_s1'
p1633
F0.46512721453030537
sS'right_w0'
p1634
F-0.8083424688975054
sS'right_w1'
p1635
F-1.096695011286978
sS'right_w2'
p1636
F2.2150808310012966
sS'right_e0'
p1637
F0.9961905536109414
sS'right_e1'
p1638
F1.4525346463300304
ssS'-0.208'
p1639
(dp1640
S'right_s0'
p1641
F0.04995931590143421
sS'right_s1'
p1642
F0.46513318936992043
sS'right_w0'
p1643
F-0.8083320602622255
sS'right_w1'
p1644
F-1.0967075817096035
sS'right_w2'
p1645
F2.2150857827187878
sS'right_e0'
p1646
F0.9962366024743279
sS'right_e1'
p1647
F1.452478487753095
ssS'-0.205'
p1648
(dp1649
S'right_s0'
p1650
F0.04153936839770999
sS'right_s1'
p1651
F0.46085743572842836
sS'right_w0'
p1652
F-0.8124357850196838
sS'right_w1'
p1653
F-1.0917565967238736
sS'right_w2'
p1654
F2.221733440454396
sS'right_e0'
p1655
F0.9918805006314854
sS'right_e1'
p1656
F1.4557418463222864
ssS'-0.204'
p1657
(dp1658
S'right_s0'
p1659
F0.06023392987521792
sS'right_s1'
p1660
F0.4693261938710087
sS'right_w0'
p1661
F-0.8050051125776259
sS'right_w1'
p1662
F-1.1008587470473792
sS'right_w2'
p1663
F2.2097418368545423
sS'right_e0'
p1664
F1.0003061131277127
sS'right_e1'
p1665
F1.4501366321929536
ssS'-0.207'
p1666
(dp1667
S'right_s0'
p1668
F0.05007154058712704
sS'right_s1'
p1669
F0.4651617632791174
sS'right_w0'
p1670
F-0.8083592029198385
sS'right_w1'
p1671
F-1.0967117089394804
sS'right_w2'
p1672
F2.2150765517886057
sS'right_e0'
p1673
F0.9963099403910913
sS'right_e1'
p1674
F1.452476187616952
ssS'-0.206'
p1675
(dp1676
S'right_s0'
p1677
F0.05024531217962114
sS'right_s1'
p1678
F0.4652604327614096
sS'right_w0'
p1679
F-0.808304980093931
sS'right_w1'
p1680
F-1.0967966421637572
sS'right_w2'
p1681
F2.215018716360266
sS'right_e0'
p1682
F0.9964443839322801
sS'right_e1'
p1683
F1.4523985610238643
ssS'-0.201'
p1684
(dp1685
S'right_s0'
p1686
F0.06056001428225599
sS'right_s1'
p1687
F0.46946690752234055
sS'right_w0'
p1688
F-0.805000729738163
sS'right_w1'
p1689
F-1.1008988992671762
sS'right_w2'
p1690
F2.2097068104490525
sS'right_e0'
p1691
F1.0003987570943398
sS'right_e1'
p1692
F1.4502253375642828
ssS'-0.203'
p1693
(dp1694
S'right_s0'
p1695
F0.06023392987521792
sS'right_s1'
p1696
F0.4693261938710087
sS'right_w0'
p1697
F-0.8050051125776259
sS'right_w1'
p1698
F-1.1008587470473792
sS'right_w2'
p1699
F2.2097418368545423
sS'right_e0'
p1700
F1.0003061131277127
sS'right_e1'
p1701
F1.4501366321929536
ssS'-0.202'
p1702
(dp1703
S'right_s0'
p1704
F0.060354558795376434
sS'right_s1'
p1705
F0.4693637208792678
sS'right_w0'
p1706
F-0.8050262908391197
sS'right_w1'
p1707
F-1.1008525974494718
sS'right_w2'
p1708
F2.2097493111579283
sS'right_e0'
p1709
F1.0003111155829032
sS'right_e1'
p1710
F1.450268047311007
ssS'-0.398'
p1711
(dp1712
S'right_s0'
p1713
F-0.2107297435577804
sS'right_s1'
p1714
F0.31299279064772456
sS'right_w0'
p1715
F-0.9862115551744379
sS'right_w1'
p1716
F-0.9218826599345293
sS'right_w2'
p1717
F2.5102948012916606
sS'right_e0'
p1718
F0.8778353142569832
sS'right_e1'
p1719
F1.4342559635244552
ssS'-0.328'
p1720
(dp1721
S'right_s0'
p1722
F-0.13238340790993508
sS'right_s1'
p1723
F0.3683348748641695
sS'right_w0'
p1724
F-0.9087164926578746
sS'right_w1'
p1725
F-0.9845977425209709
sS'right_w2'
p1726
F2.378232112391858
sS'right_e0'
p1727
F0.9161610970619591
sS'right_e1'
p1728
F1.4662825469003646
ssS'-0.339'
p1729
(dp1730
S'right_s0'
p1731
F-0.14747201563029222
sS'right_s1'
p1732
F0.35833193520313955
sS'right_w0'
p1733
F-0.921028391590891
sS'right_w1'
p1734
F-0.9732535760234864
sS'right_w2'
p1735
F2.399344319443845
sS'right_e0'
p1736
F0.9091210230911742
sS'right_e1'
p1737
F1.4628060401613556
ssS'-0.338'
p1738
(dp1739
S'right_s0'
p1740
F-0.1475654656725407
sS'right_s1'
p1741
F0.35841232955749014
sS'right_w0'
p1742
F-0.9210968396228774
sS'right_w1'
p1743
F-0.9732398686048027
sS'right_w2'
p1744
F2.399349040193174
sS'right_e0'
p1745
F0.9091817721971545
sS'right_e1'
p1746
F1.4628278526409968
ssS'-0.329'
p1747
(dp1748
S'right_s0'
p1749
F-0.13235409341432192
sS'right_s1'
p1750
F0.36833702145376
sS'right_w0'
p1751
F-0.908712700392412
sS'right_w1'
p1752
F-0.984597176632664
sS'right_w2'
p1753
F2.3782313305039207
sS'right_e0'
p1754
F0.9161717403085259
sS'right_e1'
p1755
F1.4662779625674247
ssS'-0.331'
p1756
(dp1757
S'right_s0'
p1758
F-0.140205873792266
sS'right_s1'
p1759
F0.363597645787749
sS'right_w0'
p1760
F-0.9147084837602684
sS'right_w1'
p1761
F-0.979107198339241
sS'right_w2'
p1762
F2.3884158107450446
sS'right_e0'
p1763
F0.9128011374049763
sS'right_e1'
p1764
F1.4647382792378627
ssS'-0.333'
p1765
(dp1766
S'right_s0'
p1767
F-0.1400291745542983
sS'right_s1'
p1768
F0.36333838930753704
sS'right_w0'
p1769
F-0.914839200355356
sS'right_w1'
p1770
F-0.9788880974063368
sS'right_w2'
p1771
F2.3887350418468003
sS'right_e0'
p1772
F0.9126076911137844
sS'right_e1'
p1773
F1.4646319638800236
ssS'-0.332'
p1774
(dp1775
S'right_s0'
p1776
F-0.14010334829757554
sS'right_s1'
p1777
F0.3634094318691057
sS'right_w0'
p1778
F-0.9149012169178103
sS'right_w1'
p1779
F-0.9788770256987513
sS'right_w2'
p1780
F2.388730904823568
sS'right_e0'
p1781
F0.9126803401468706
sS'right_e1'
p1782
F1.4646865793689283
ssS'-0.335'
p1783
(dp1784
S'right_s0'
p1785
F-0.13996239545673728
sS'right_s1'
p1786
F0.3633149381533167
sS'right_w0'
p1787
F-0.9148582667336091
sS'right_w1'
p1788
F-0.978862891965461
sS'right_w2'
p1789
F2.3887189171386147
sS'right_e0'
p1790
F0.9126045418925743
sS'right_e1'
p1791
F1.4646312997479205
ssS'-0.334'
p1792
(dp1793
S'right_s0'
p1794
F-0.13996239545673728
sS'right_s1'
p1795
F0.3633149381533167
sS'right_w0'
p1796
F-0.9148582667336091
sS'right_w1'
p1797
F-0.978862891965461
sS'right_w2'
p1798
F2.3887189171386147
sS'right_e0'
p1799
F0.9126045418925743
sS'right_e1'
p1800
F1.4646312997479205
ssS'-0.337'
p1801
(dp1802
S'right_s0'
p1803
F-0.14768819434064806
sS'right_s1'
p1804
F0.35859836478454366
sS'right_w0'
p1805
F-0.9209141441161561
sS'right_w1'
p1806
F-0.9734395685383372
sS'right_w2'
p1807
F2.3990820055039226
sS'right_e0'
p1808
F0.9092940179413818
sS'right_e1'
p1809
F1.4628775297262147
ssS'-0.336'
p1810
(dp1811
S'right_s0'
p1812
F-0.15333117372541077
sS'right_s1'
p1813
F0.3548795081081162
sS'right_w0'
p1814
F-0.9260346408936464
sS'right_w1'
p1815
F-0.9690440029219942
sS'right_w2'
p1816
F2.4079912557660097
sS'right_e0'
p1817
F0.9065363969700315
sS'right_e1'
p1818
F1.4617266906696007
ssS'-0.098'
p1819
(dp1820
S'right_s0'
p1821
F0.2692516548975341
sS'right_s1'
p1822
F0.5439157258094385
sS'right_w0'
p1823
F-0.7429194449802292
sS'right_w1'
p1824
F-1.178442524236475
sS'right_w2'
p1825
F2.1260715627627143
sS'right_e0'
p1826
F1.0981711909735417
sS'right_e1'
p1827
F1.3627942336905807
ssS'-0.099'
p1828
(dp1829
S'right_s0'
p1830
F0.2689094335249411
sS'right_s1'
p1831
F0.5439052541001548
sS'right_w0'
p1832
F-0.7428915264615519
sS'right_w1'
p1833
F-1.178450317278716
sS'right_w2'
p1834
F2.126078558813056
sS'right_e0'
p1835
F1.0981412642344122
sS'right_e1'
p1836
F1.362741586974141
ssS'-0.092'
p1837
(dp1838
S'right_s0'
p1839
F0.26170307418607075
sS'right_s1'
p1840
F0.5418206420023177
sS'right_w0'
p1841
F-0.7451993430013881
sS'right_w1'
p1842
F-1.176228009957024
sS'right_w2'
p1843
F2.1285745903462123
sS'right_e0'
p1844
F1.0945104818494382
sS'right_e1'
p1845
F1.3677704499891459
ssS'-0.289'
p1846
(dp1847
S'right_s0'
p1848
F-0.08378154188788667
sS'right_s1'
p1849
F0.3987641116854821
sS'right_w0'
p1850
F-0.8736008158671691
sS'right_w1'
p1851
F-1.0199350793739148
sS'right_w2'
p1852
F2.319433809384133
sS'right_e0'
p1853
F0.9382776660868251
sS'right_e1'
p1854
F1.471243296804495
ssS'-0.288'
p1855
(dp1856
S'right_s0'
p1857
F-0.0902655167514255
sS'right_s1'
p1858
F0.39438384603118354
sS'right_w0'
p1859
F-0.8788919450120743
sS'right_w1'
p1860
F-1.0144760900088754
sS'right_w2'
p1861
F2.3283610725074038
sS'right_e0'
p1862
F0.9348695315623032
sS'right_e1'
p1863
F1.4715433138574885
ssS'-0.025'
p1864
(dp1865
S'right_s0'
p1866
F0.4347614918127345
sS'right_s1'
p1867
F0.5795148652282558
sS'right_w0'
p1868
F-0.7051195166232489
sS'right_w1'
p1869
F-1.2119353222831322
sS'right_w2'
p1870
F2.0985753700299696
sS'right_e0'
p1871
F1.1765085185370516
sS'right_e1'
p1872
F1.2638383620024847
ssS'-0.024'
p1873
(dp1874
S'right_s0'
p1875
F0.4347614918127345
sS'right_s1'
p1876
F0.5795148652282558
sS'right_w0'
p1877
F-0.7051195166232489
sS'right_w1'
p1878
F-1.2119353222831322
sS'right_w2'
p1879
F2.0985753700299696
sS'right_e0'
p1880
F1.1765085185370516
sS'right_e1'
p1881
F1.2638383620024847
ssS'-0.027'
p1882
(dp1883
S'right_s0'
p1884
F0.43442279377977666
sS'right_s1'
p1885
F0.5795238150102087
sS'right_w0'
p1886
F-0.7050967332194613
sS'right_w1'
p1887
F-1.2119298821722513
sS'right_w2'
p1888
F2.0985711090727257
sS'right_e0'
p1889
F1.1764198161093704
sS'right_e1'
p1890
F1.2637715875268265
ssS'-0.149'
p1891
(dp1892
S'right_s0'
p1893
F0.16081121845480428
sS'right_s1'
p1894
F0.5092452273626096
sS'right_w0'
p1895
F-0.7722931916232287
sS'right_w1'
p1896
F-1.143131329666324
sS'right_w2'
p1897
F2.161408990059414
sS'right_e0'
p1898
F1.0466548208132327
sS'right_e1'
p1899
F1.4149931092568417
ssS'-0.021'
p1900
(dp1901
S'right_s0'
p1902
F0.43562554211421656
sS'right_s1'
p1903
F0.5795415815345066
sS'right_w0'
p1904
F-0.7050559702415082
sS'right_w1'
p1905
F-1.2119454225220823
sS'right_w2'
p1906
F2.098578884153646
sS'right_e0'
p1907
F1.1768629364166632
sS'right_e1'
p1908
F1.2635836721857387
ssS'-0.023'
p1909
(dp1910
S'right_s0'
p1911
F0.43514101558726015
sS'right_s1'
p1912
F0.5795101180227151
sS'right_w0'
p1913
F-0.7051229462578474
sS'right_w1'
p1914
F-1.2119101903799576
sS'right_w2'
p1915
F2.0985840762334167
sS'right_e0'
p1916
F1.1766564074512917
sS'right_e1'
p1917
F1.2638195381960937
ssS'-0.022'
p1918
(dp1919
S'right_s0'
p1920
F0.43514101558726015
sS'right_s1'
p1921
F0.5795101180227151
sS'right_w0'
p1922
F-0.7051229462578474
sS'right_w1'
p1923
F-1.2119101903799576
sS'right_w2'
p1924
F2.0985840762334167
sS'right_e0'
p1925
F1.1766564074512917
sS'right_e1'
p1926
F1.2638195381960937
ssS'-0.142'
p1927
(dp1928
S'right_s0'
p1929
F0.17463144108927064
sS'right_s1'
p1930
F0.5142318690729821
sS'right_w0'
p1931
F-0.7682536729689051
sS'right_w1'
p1932
F-1.1482731507737416
sS'right_w2'
p1933
F2.1559408194479808
sS'right_e0'
p1934
F1.0532461794267904
sS'right_e1'
p1935
F1.408926908245844
ssS'-0.143'
p1936
(dp1937
S'right_s0'
p1938
F0.17439988726561673
sS'right_s1'
p1939
F0.514199931313513
sS'right_w0'
p1940
F-0.7682315762683256
sS'right_w1'
p1941
F-1.1482590121119607
sS'right_w2'
p1942
F2.1559365536319017
sS'right_e0'
p1943
F1.0532600898001618
sS'right_e1'
p1944
F1.4088782558765347
ssS'-0.141'
p1945
(dp1946
S'right_s0'
p1947
F0.17463144108927064
sS'right_s1'
p1948
F0.5142318690729821
sS'right_w0'
p1949
F-0.7682536729689051
sS'right_w1'
p1950
F-1.1482731507737416
sS'right_w2'
p1951
F2.1559408194479808
sS'right_e0'
p1952
F1.0532461794267904
sS'right_e1'
p1953
F1.408926908245844
ssS'-0.029'
p1954
(dp1955
S'right_s0'
p1956
F0.4160382824868849
sS'right_s1'
p1957
F0.5764147520599039
sS'right_w0'
p1958
F-0.709091115826177
sS'right_w1'
p1959
F-1.209305896828993
sS'right_w2'
p1960
F2.1001390542456377
sS'right_e0'
p1961
F1.16758767478923
sS'right_e1'
p1962
F1.2767041533224095
ssS'-0.028'
p1963
(dp1964
S'right_s0'
p1965
F0.407529130150439
sS'right_s1'
p1966
F0.5750937169220416
sS'right_w0'
p1967
F-0.7110008450088919
sS'right_w1'
p1968
F-1.208296311707253
sS'right_w2'
p1969
F2.10120620342573
sS'right_e0'
p1970
F1.1637763829328143
sS'right_e1'
p1971
F1.282669333046636
ssS'-0.144'
p1972
(dp1973
S'right_s0'
p1974
F0.17430553761192336
sS'right_s1'
p1975
F0.5141777996688912
sS'right_w0'
p1976
F-0.768236175923307
sS'right_w1'
p1977
F-1.1482788382514286
sS'right_w2'
p1978
F2.1559304985861836
sS'right_e0'
p1979
F1.0532648931940267
sS'right_e1'
p1980
F1.4088683434357092
ssS'-0.145'
p1981
(dp1982
S'right_s0'
p1983
F0.15248112366759128
sS'right_s1'
p1984
F0.5065329894943406
sS'right_w0'
p1985
F-0.7747347877605542
sS'right_w1'
p1986
F-1.1403333217327614
sS'right_w2'
p1987
F2.164990733928983
sS'right_e0'
p1988
F1.0429632313514257
sS'right_e1'
p1989
F1.418612736136274
ssS'-0.093'
p1990
(dp1991
S'right_s0'
p1992
F0.27033224301078107
sS'right_s1'
p1993
F0.544013726498612
sS'right_w0'
p1994
F-0.7429351151512016
sS'right_w1'
p1995
F-1.178406338036063
sS'right_w2'
p1996
F2.1260736349123928
sS'right_e0'
p1997
F1.0984720203651088
sS'right_e1'
p1998
F1.3628478776046586
ssS'-0.418'
p1999
(dp2000
S'right_s0'
p2001
F-0.23296475106409265
sS'right_s1'
p2002
F0.295448548481553
sS'right_w0'
p2003
F-1.0168524746620147
sS'right_w1'
p2004
F-0.9022590561216726
sS'right_w2'
p2005
F2.5615377741809997
sS'right_e0'
p2006
F0.86628296828445
sS'right_e1'
p2007
F1.4166059556291621
ssS'-0.419'
p2008
(dp2009
S'right_s0'
p2010
F-0.2332206547416611
sS'right_s1'
p2011
F0.29539165242286725
sS'right_w0'
p2012
F-1.016858533907416
sS'right_w1'
p2013
F-0.9022782259872271
sS'right_w2'
p2014
F2.5615326065545165
sS'right_e0'
p2015
F0.8663083013507515
sS'right_e1'
p2016
F1.416582822469282
ssS'-0.414'
p2017
(dp2018
S'right_s0'
p2019
F-0.22606829004727658
sS'right_s1'
p2020
F0.30130465332451273
sS'right_w0'
p2021
F-1.0059089348186578
sS'right_w1'
p2022
F-0.909038763085003
sS'right_w2'
p2023
F2.5433840001186603
sS'right_e0'
p2024
F0.8702779441239459
sS'right_e1'
p2025
F1.4230710883748818
ssS'-0.415'
p2026
(dp2027
S'right_s0'
p2028
F-0.2354978352254233
sS'right_s1'
p2029
F0.29305526571002616
sS'right_w0'
p2030
F-1.0219587387931135
sS'right_w1'
p2031
F-0.8992949625249315
sS'right_w2'
p2032
F2.570150410348733
sS'right_e0'
p2033
F0.8646174938137693
sS'right_e1'
p2034
F1.4142049912718082
ssS'-0.416'
p2035
(dp2036
S'right_s0'
p2037
F-0.23225458834572432
sS'right_s1'
p2038
F0.29569940021824426
sS'right_w0'
p2039
F-1.016691563731225
sS'right_w1'
p2040
F-0.9022805129310703
sS'right_w2'
p2041
F2.561270437145014
sS'right_e0'
p2042
F0.8662007312323956
sS'right_e1'
p2043
F1.416870943820805
ssS'-0.417'
p2044
(dp2045
S'right_s0'
p2046
F-0.23253214109488152
sS'right_s1'
p2047
F0.29555704651741976
sS'right_w0'
p2048
F-1.01687394220383
sS'right_w1'
p2049
F-0.9021706253894468
sS'right_w2'
p2050
F2.5615442373758324
sS'right_e0'
p2051
F0.8661869920474201
sS'right_e1'
p2052
F1.416726936660301
ssS'-0.411'
p2053
(dp2054
S'right_s0'
p2055
F-0.22558127860923882
sS'right_s1'
p2056
F0.301389373642059
sS'right_w0'
p2057
F-1.00593513405801
sS'right_w1'
p2058
F-0.9089962762440189
sS'right_w2'
p2059
F2.543389776751985
sS'right_e0'
p2060
F0.8702527073332256
sS'right_e1'
p2061
F1.4231372174044763
ssS'-0.412'
p2062
(dp2063
S'right_s0'
p2064
F-0.22583856070708297
sS'right_s1'
p2065
F0.30133589368643676
sS'right_w0'
p2066
F-1.005923250614515
sS'right_w1'
p2067
F-0.9090247299918417
sS'right_w2'
p2068
F2.5433872608898653
sS'right_e0'
p2069
F0.8702694879230259
sS'right_e1'
p2070
F1.4231151730589113
ssS'-0.413'
p2071
(dp2072
S'right_s0'
p2073
F-0.22606829004727658
sS'right_s1'
p2074
F0.30130465332451273
sS'right_w0'
p2075
F-1.0059089348186578
sS'right_w1'
p2076
F-0.909038763085003
sS'right_w2'
p2077
F2.5433840001186603
sS'right_e0'
p2078
F0.8702779441239459
sS'right_e1'
p2079
F1.4230710883748818
ssS'-0.15'
p2080
(dp2081
S'right_s0'
p2082
F0.16056822575211172
sS'right_s1'
p2083
F0.5092089029561695
sS'right_w0'
p2084
F-0.7722608092302856
sS'right_w1'
p2085
F-1.1431494119987091
sS'right_w2'
p2086
F2.16140884761802
sS'right_e0'
p2087
F1.0466492737988915
sS'right_e1'
p2088
F1.4148682849845677
ssS'-0.14'
p2089
(dp2090
S'right_s0'
p2091
F0.17486511942716998
sS'right_s1'
p2092
F0.5142979094083158
sS'right_w0'
p2093
F-0.7682725890239217
sS'right_w1'
p2094
F-1.1482005046948096
sS'right_w2'
p2095
F2.1559464991745454
sS'right_e0'
p2096
F1.0532661709781035
sS'right_e1'
p2097
F1.4089976843831549
ssS'-0.17'
p2098
(dp2099
S'right_s0'
p2100
F0.1206003575288701
sS'right_s1'
p2101
F0.49421572807783853
sS'right_w0'
p2102
F-0.784352979091711
sS'right_w1'
p2103
F-1.127549439836394
sS'right_w2'
p2104
F2.178632187673834
sS'right_e0'
p2105
F1.0279851956887658
sS'right_e1'
p2106
F1.4304914245533444
ssS'-0.16'
p2107
(dp2108
S'right_s0'
p2109
F0.13416075375724112
sS'right_s1'
p2110
F0.49932442359786133
sS'right_w0'
p2111
F-0.7803060666422921
sS'right_w1'
p2112
F-1.132773160379883
sS'right_w2'
p2113
F2.1727435112931985
sS'right_e0'
p2114
F1.0340612541785603
sS'right_e1'
p2115
F1.425748578438851
ssS'-0.11'
p2116
(dp2117
S'right_s0'
p2118
F0.23615402037834166
sS'right_s1'
p2119
F0.534216098530786
sS'right_w0'
p2120
F-0.7515693699717882
sS'right_w1'
p2121
F-1.1685620332020124
sS'right_w2'
p2122
F2.1353843321736647
sS'right_e0'
p2123
F1.0822923329509555
sS'right_e1'
p2124
F1.3803162096580754
ssS'-0.13'
p2125
(dp2126
S'right_s0'
p2127
F0.20223294888386611
sS'right_s1'
p2128
F0.5237880114786098
sS'right_w0'
p2129
F-0.7603153887278262
sS'right_w1'
p2130
F-1.1581524143941415
sS'right_w2'
p2131
F2.1457422403569293
sS'right_e0'
p2132
F1.0664900851455172
sS'right_e1'
p2133
F1.396038583266317
ssS'-0.12'
p2134
(dp2135
S'right_s0'
p2136
F0.21873318189807112
sS'right_s1'
p2137
F0.528990706608524
sS'right_w0'
p2138
F-0.7559730134780089
sS'right_w1'
p2139
F-1.163408248785407
sS'right_w2'
p2140
F2.1404803314635004
sS'right_e0'
p2141
F1.0741570892379109
sS'right_e1'
p2142
F1.3884850549269059
ssS'-0.19'
p2143
(dp2144
S'right_s0'
p2145
F0.08377659825194161
sS'right_s1'
p2146
F0.47946332366080746
sS'right_w0'
p2147
F-0.796451900472694
sS'right_w1'
p2148
F-1.1118744661382207
sS'right_w2'
p2149
F2.1966853503693677
sS'right_e0'
p2150
F1.0109868673624147
sS'right_e1'
p2151
F1.4430358976200965
ssS'-0.18'
p2152
(dp2153
S'right_s0'
p2154
F0.0965405032223341
sS'right_s1'
p2155
F0.4845353378272108
sS'right_w0'
p2156
F-0.7924163425565096
sS'right_w1'
p2157
F-1.1170633132872618
sS'right_w2'
p2158
F2.1905149679630576
sS'right_e0'
p2159
F1.0166219954090456
sS'right_e1'
p2160
F1.4393149274537045
ssS'-0.241'
p2161
(dp2162
S'right_s0'
p2163
F-0.0062899558893114715
sS'right_s1'
p2164
F0.4396963958944786
sS'right_w0'
p2165
F-0.8315016684666894
sS'right_w1'
p2166
F-1.0678627156727423
sS'right_w2'
p2167
F2.251272116080271
sS'right_e0'
p2168
F0.971959083707497
sS'right_e1'
p2169
F1.4646583518926093
ssS'-0.243'
p2170
(dp2171
S'right_s0'
p2172
F-0.006464685517446611
sS'right_s1'
p2173
F0.4397169824307845
sS'right_w0'
p2174
F-0.8314718405324193
sS'right_w1'
p2175
F-1.0679061030030024
sS'right_w2'
p2176
F2.2512761000262707
sS'right_e0'
p2177
F0.9719930403690382
sS'right_e1'
p2178
F1.4646358021080133
ssS'-0.242'
p2179
(dp2180
S'right_s0'
p2181
F-0.0062899558893114715
sS'right_s1'
p2182
F0.4396963958944786
sS'right_w0'
p2183
F-0.8315016684666894
sS'right_w1'
p2184
F-1.0678627156727423
sS'right_w2'
p2185
F2.251272116080271
sS'right_e0'
p2186
F0.971959083707497
sS'right_e1'
p2187
F1.4646583518926093
ssS'-0.245'
p2188
(dp2189
S'right_s0'
p2190
F-0.025450753362812942
sS'right_s1'
p2191
F0.4292984598754593
sS'right_w0'
p2192
F-0.8422400993009117
sS'right_w1'
p2193
F-1.0552953899183168
sS'right_w2'
p2194
F2.268457659526955
sS'right_e0'
p2195
F0.9627984872536981
sS'right_e1'
p2196
F1.468580628110882
ssS'-0.244'
p2197
(dp2198
S'right_s0'
p2199
F-0.006621691947353625
sS'right_s1'
p2200
F0.43970814498866684
sS'right_w0'
p2201
F-0.8314607956527889
sS'right_w1'
p2202
F-1.067899628118198
sS'right_w2'
p2203
F2.2512695099247626
sS'right_e0'
p2204
F0.9719824303013098
sS'right_e1'
p2205
F1.464626182018911
ssS'-0.247'
p2206
(dp2207
S'right_s0'
p2208
F-0.017307178367251375
sS'right_s1'
p2209
F0.43411994206950233
sS'right_w0'
p2210
F-0.8369709112973425
sS'right_w1'
p2211
F-1.0612771339593907
sS'right_w2'
p2212
F2.2599721219213276
sS'right_e0'
p2213
F0.9670202738615705
sS'right_e1'
p2214
F1.4665326736469275
ssS'-0.246'
p2215
(dp2216
S'right_s0'
p2217
F-0.017276125498217
sS'right_s1'
p2218
F0.43424049310644985
sS'right_w0'
p2219
F-0.8368934104124417
sS'right_w1'
p2220
F-1.0614322935482763
sS'right_w2'
p2221
F2.259833919779169
sS'right_e0'
p2222
F0.9671091202645554
sS'right_e1'
p2223
F1.4664436452141372
ssS'-0.249'
p2224
(dp2225
S'right_s0'
p2226
F-0.017341510718548392
sS'right_s1'
p2227
F0.4341365344498449
sS'right_w0'
p2228
F-0.8369772533238233
sS'right_w1'
p2229
F-1.061259105626279
sS'right_w2'
p2230
F2.25996322932167
sS'right_e0'
p2231
F0.9670729051343958
sS'right_e1'
p2232
F1.4665518067767058
ssS'-0.248'
p2233
(dp2234
S'right_s0'
p2235
F-0.017307178367251375
sS'right_s1'
p2236
F0.43411994206950233
sS'right_w0'
p2237
F-0.8369709112973425
sS'right_w1'
p2238
F-1.0612771339593907
sS'right_w2'
p2239
F2.2599721219213276
sS'right_e0'
p2240
F0.9670202738615705
sS'right_e1'
p2241
F1.4665326736469275
ssS'-0.483'
p2242
(dp2243
S'right_s0'
p2244
F-0.2810405944233221
sS'right_s1'
p2245
F0.25148035142984426
sS'right_w0'
p2246
F-1.1136735890308822
sS'right_w1'
p2247
F-0.8550749984617747
sS'right_w2'
p2248
F2.7231755396979445
sS'right_e0'
p2249
F0.8333405179759144
sS'right_e1'
p2250
F1.348498623963704
ssS'-0.482'
p2251
(dp2252
S'right_s0'
p2253
F-0.2808811240512279
sS'right_s1'
p2254
F0.25148133036828835
sS'right_w0'
p2255
F-1.1136803403922704
sS'right_w1'
p2256
F-0.8550635601107617
sS'right_w2'
p2257
F2.723178179666654
sS'right_e0'
p2258
F0.8333866626603585
sS'right_e1'
p2259
F1.3485145480697387
ssS'-0.481'
p2260
(dp2261
S'right_s0'
p2262
F-0.2807022966591166
sS'right_s1'
p2263
F0.2514917548803872
sS'right_w0'
p2264
F-1.1137292692245184
sS'right_w1'
p2265
F-0.8550865435353563
sS'right_w2'
p2266
F2.7231747555344903
sS'right_e0'
p2267
F0.8334432343226483
sS'right_e1'
p2268
F1.3485257353197424
ssS'-0.487'
p2269
(dp2270
S'right_s0'
p2271
F-0.2815527669630491
sS'right_s1'
p2272
F0.25145204161398826
sS'right_w0'
p2273
F-1.1136475470619676
sS'right_w1'
p2274
F-0.8550663526117699
sS'right_w2'
p2275
F2.723152677227443
sS'right_e0'
p2276
F0.8332394907326144
sS'right_e1'
p2277
F1.3484449902011022
ssS'-0.486'
p2278
(dp2279
S'right_s0'
p2280
F-0.28144298113811406
sS'right_s1'
p2281
F0.2514641400453721
sS'right_w0'
p2282
F-1.1136345631462712
sS'right_w1'
p2283
F-0.8550758887606253
sS'right_w2'
p2284
F2.7231543251851296
sS'right_e0'
p2285
F0.8332525344826918
sS'right_e1'
p2286
F1.3484611226335597
ssS'-0.485'
p2287
(dp2288
S'right_s0'
p2289
F-0.2813224022792138
sS'right_s1'
p2290
F0.2514637797622621
sS'right_w0'
p2291
F-1.1136544343832364
sS'right_w1'
p2292
F-0.8550789216662356
sS'right_w2'
p2293
F2.723161072142309
sS'right_e0'
p2294
F0.8332810941146489
sS'right_e1'
p2295
F1.3484824558342332
ssS'-0.484'
p2296
(dp2297
S'right_s0'
p2298
F-0.2811764695215988
sS'right_s1'
p2299
F0.2514689790187141
sS'right_w0'
p2300
F-1.1136534973577028
sS'right_w1'
p2301
F-0.8550716706157395
sS'right_w2'
p2302
F2.7231647018382183
sS'right_e0'
p2303
F0.8333057310112011
sS'right_e1'
p2304
F1.3484950891571712
ssS'-0.561'
p2305
(dp2306
S'right_s0'
p2307
F-0.30800933865752445
sS'right_s1'
p2308
F0.20663004434084797
sS'right_w0'
p2309
F-1.2520932322102212
sS'right_w1'
p2310
F-0.8230413413566939
sS'right_w2'
p2311
F2.968964125307007
sS'right_e0'
p2312
F0.7816193553188064
sS'right_e1'
p2313
F1.2181247872500185
ssS'-0.489'
p2314
(dp2315
S'right_s0'
p2316
F-0.28535506822891676
sS'right_s1'
p2317
F0.2459369454108069
sS'right_w0'
p2318
F-1.1281917241577553
sS'right_w1'
p2319
F-0.8499076285025078
sS'right_w2'
p2320
F2.747843178882979
sS'right_e0'
p2321
F0.8285753701376732
sS'right_e1'
p2322
F1.3368445612946491
ssS'-0.488'
p2323
(dp2324
S'right_s0'
p2325
F-0.2863844209567983
sS'right_s1'
p2326
F0.244246481732327
sS'right_w0'
p2327
F-1.1333587707081993
sS'right_w1'
p2328
F-0.8481903728738309
sS'right_w2'
p2329
F2.756764869027544
sS'right_e0'
p2330
F0.8270083071880662
sS'right_e1'
p2331
F1.333226874936243
ssS'-0.564'
p2332
(dp2333
S'right_s0'
p2334
F-0.3081984491021217
sS'right_s1'
p2335
F0.20661739308370208
sS'right_w0'
p2336
F-1.2520719655947268
sS'right_w1'
p2337
F-0.822974692805623
sS'right_w2'
p2338
F2.9690310213969298
sS'right_e0'
p2339
F0.7815619192672658
sS'right_e1'
p2340
F1.218065557125719
ssS'-0.565'
p2341
(dp2342
S'right_s0'
p2343
F-0.30821269952622377
sS'right_s1'
p2344
F0.20661090889542333
sS'right_w0'
p2345
F-1.2520746461562542
sS'right_w1'
p2346
F-0.8229678106687919
sS'right_w2'
p2347
F2.9690267967818826
sS'right_e0'
p2348
F0.781548522016446
sS'right_e1'
p2349
F1.2180536621786677
ssS'-0.566'
p2350
(dp2351
S'right_s0'
p2352
F-0.30827666729617764
sS'right_s1'
p2353
F0.20662161363586318
sS'right_w0'
p2354
F-1.2520879971767744
sS'right_w1'
p2355
F-0.8229687950307332
sS'right_w2'
p2356
F2.9690226516040745
sS'right_e0'
p2357
F0.7815644230027345
sS'right_e1'
p2358
F1.2180764728810791
ssS'-0.567'
p2359
(dp2360
S'right_s0'
p2361
F-0.30828581868393545
sS'right_s1'
p2362
F0.20661465007498947
sS'right_w0'
p2363
F-1.2520609245230636
sS'right_w1'
p2364
F-0.8229818883499949
sS'right_w2'
p2365
F2.969016208828066
sS'right_e0'
p2366
F0.7815495448210497
sS'right_e1'
p2367
F1.2180564635654614
ssS'-0.188'
p2368
(dp2369
S'right_s0'
p2370
F0.08390347020941835
sS'right_s1'
p2371
F0.479546717836115
sS'right_w0'
p2372
F-0.7964177686666742
sS'right_w1'
p2373
F-1.1119503750456818
sS'right_w2'
p2374
F2.1966746567337143
sS'right_e0'
p2375
F1.0111284298539989
sS'right_e1'
p2376
F1.4430049242894043
ssS'-0.189'
p2377
(dp2378
S'right_s0'
p2379
F0.08382711232011175
sS'right_s1'
p2380
F0.47943521183652127
sS'right_w0'
p2381
F-0.7964470790264597
sS'right_w1'
p2382
F-1.1118778712598179
sS'right_w2'
p2383
F2.196691990574852
sS'right_e0'
p2384
F1.010988735842827
sS'right_e1'
p2385
F1.4430954516037868
ssS'-0.186'
p2386
(dp2387
S'right_s0'
p2388
F0.07522455331853084
sS'right_s1'
p2389
F0.4757565795682099
sS'right_w0'
p2390
F-0.7997649959069535
sS'right_w1'
p2391
F-1.1079523143378363
sS'right_w2'
p2392
F2.2019543369928916
sS'right_e0'
p2393
F1.0071519436325043
sS'right_e1'
p2394
F1.446330559365765
ssS'-0.187'
p2395
(dp2396
S'right_s0'
p2397
F0.08405156122763469
sS'right_s1'
p2398
F0.4796834428022443
sS'right_w0'
p2399
F-0.7962322802413624
sS'right_w1'
p2400
F-1.1121894473716996
sS'right_w2'
p2401
F2.1964203131573594
sS'right_e0'
p2402
F1.0113439590666662
sS'right_e1'
p2403
F1.4427918103634632
ssS'-0.184'
p2404
(dp2405
S'right_s0'
p2406
F0.09560523198888049
sS'right_s1'
p2407
F0.4843485586790619
sS'right_w0'
p2408
F-0.7924315942708482
sS'right_w1'
p2409
F-1.1171202953412074
sS'right_w2'
p2410
F2.1905500300001854
sS'right_e0'
p2411
F1.0164578951660657
sS'right_e1'
p2412
F1.4390994289000707
ssS'-0.185'
p2413
(dp2414
S'right_s0'
p2415
F0.09560523198888049
sS'right_s1'
p2416
F0.4843485586790619
sS'right_w0'
p2417
F-0.7924315942708482
sS'right_w1'
p2418
F-1.1171202953412074
sS'right_w2'
p2419
F2.1905500300001854
sS'right_e0'
p2420
F1.0164578951660657
sS'right_e1'
p2421
F1.4390994289000707
ssS'-0.182'
p2422
(dp2423
S'right_s0'
p2424
F0.09616750650921801
sS'right_s1'
p2425
F0.48440906149202245
sS'right_w0'
p2426
F-0.7924457559972486
sS'right_w1'
p2427
F-1.11705980394866
sS'right_w2'
p2428
F2.1905566274124553
sS'right_e0'
p2429
F1.0164969281764646
sS'right_e1'
p2430
F1.4393410547655803
ssS'-0.183'
p2431
(dp2432
S'right_s0'
p2433
F0.09589757474360283
sS'right_s1'
p2434
F0.4843740665689831
sS'right_w0'
p2435
F-0.7924359446833718
sS'right_w1'
p2436
F-1.117075976615654
sS'right_w2'
p2437
F2.1905504537144544
sS'right_e0'
p2438
F1.016470621910682
sS'right_e1'
p2439
F1.4391521469138802
ssS'-0.181'
p2440
(dp2441
S'right_s0'
p2442
F0.0965405032223341
sS'right_s1'
p2443
F0.4845353378272108
sS'right_w0'
p2444
F-0.7924163425565096
sS'right_w1'
p2445
F-1.1170633132872618
sS'right_w2'
p2446
F2.1905149679630576
sS'right_e0'
p2447
F1.0166219954090456
sS'right_e1'
p2448
F1.4393149274537045
ssS'-0.069'
p2449
(dp2450
S'right_s0'
p2451
F0.3238731080342676
sS'right_s1'
p2452
F0.5576229143634297
sS'right_w0'
p2453
F-0.7300188916469033
sS'right_w1'
p2454
F-1.191745815477586
sS'right_w2'
p2455
F2.1141054860901534
sS'right_e0'
p2456
F1.1238497725532595
sS'right_e1'
p2457
F1.333364852735543
ssS'-0.341'
p2458
(dp2459
S'right_s0'
p2460
F-0.14737471248118528
sS'right_s1'
p2461
F0.35830059466540476
sS'right_w0'
p2462
F-0.921048130202915
sS'right_w1'
p2463
F-0.973217451256037
sS'right_w2'
p2464
F2.3993394872885645
sS'right_e0'
p2465
F0.9091271661753106
sS'right_e1'
p2466
F1.462780755336703
ssS'-0.342'
p2467
(dp2468
S'right_s0'
p2469
F-0.16049528037737548
sS'right_s1'
p2470
F0.3499519636927429
sS'right_w0'
p2471
F-0.9324402363181394
sS'right_w1'
p2472
F-0.9634845989047477
sS'right_w2'
p2473
F2.4189502235925784
sS'right_e0'
p2474
F0.9031467966664329
sS'right_e1'
p2475
F1.4595074775610213
ssS'-0.343'
p2476
(dp2477
S'right_s0'
p2478
F-0.15484659432129
sS'right_s1'
p2479
F0.35348346520546503
sS'right_w0'
p2480
F-0.9274512429427508
sS'right_w1'
p2481
F-0.9676202772335039
sS'right_w2'
p2482
F2.4102363469589356
sS'right_e0'
p2483
F0.905777553278897
sS'right_e1'
p2484
F1.460775465340551
ssS'-0.344'
p2485
(dp2486
S'right_s0'
p2487
F-0.15475921934714432
sS'right_s1'
p2488
F0.35333793850179784
sS'right_w0'
p2489
F-0.9275135668945582
sS'right_w1'
p2490
F-0.9675037294664062
sS'right_w2'
p2491
F2.41037830635738
sS'right_e0'
p2492
F0.9056638189655217
sS'right_e1'
p2493
F1.4607400055561168
ssS'-0.345'
p2494
(dp2495
S'right_s0'
p2496
F-0.15471347543517666
sS'right_s1'
p2497
F0.35333139360343324
sS'right_w0'
p2498
F-0.9274691640903905
sS'right_w1'
p2499
F-0.9675483990582583
sS'right_w2'
p2500
F2.4103780848328924
sS'right_e0'
p2501
F0.9056394623998631
sS'right_e1'
p2502
F1.4607145454316681
ssS'-0.346'
p2503
(dp2504
S'right_s0'
p2505
F-0.15469443516517067
sS'right_s1'
p2506
F0.3533164667335198
sS'right_w0'
p2507
F-0.9275044712188141
sS'right_w1'
p2508
F-0.967482008618191
sS'right_w2'
p2509
F2.4103685896852607
sS'right_e0'
p2510
F0.9056218160195613
sS'right_e1'
p2511
F1.4607128394606423
ssS'-0.347'
p2512
(dp2513
S'right_s0'
p2514
F-0.15466785538977312
sS'right_s1'
p2515
F0.3533113071569547
sS'right_w0'
p2516
F-0.9275237709957294
sS'right_w1'
p2517
F-0.9674978563176682
sS'right_w2'
p2518
F2.41035969476437
sS'right_e0'
p2519
F0.9056243111503219
sS'right_e1'
p2520
F1.4607098875279574
ssS'-0.061'
p2521
(dp2522
S'right_s0'
p2523
F0.34159501077117405
sS'right_s1'
p2524
F0.561715505702443
sS'right_w0'
p2525
F-0.7258938780963904
sS'right_w1'
p2526
F-1.195684188249702
sS'right_w2'
p2527
F2.1107539786358362
sS'right_e0'
p2528
F1.1323273512194953
sS'right_e1'
p2529
F1.323024681605255
ssS'-0.349'
p2530
(dp2531
S'right_s0'
p2532
F-0.16190063311008096
sS'right_s1'
p2533
F0.3484049011494843
sS'right_w0'
p2534
F-0.9341001819978754
sS'right_w1'
p2535
F-0.9619025481572319
sS'right_w2'
p2536
F2.421631007669202
sS'right_e0'
p2537
F0.9022567292879291
sS'right_e1'
p2538
F1.4584875048689119
ssS'-0.063'
p2539
(dp2540
S'right_s0'
p2541
F0.3407966911791558
sS'right_s1'
p2542
F0.5616249405357499
sS'right_w0'
p2543
F-0.7259610629865287
sS'right_w1'
p2544
F-1.195657380970153
sS'right_w2'
p2545
F2.1108043861156567
sS'right_e0'
p2546
F1.1320099465852946
sS'right_e1'
p2547
F1.3232442454721678
ssS'-0.062'
p2548
(dp2549
S'right_s0'
p2550
F0.3413289969095814
sS'right_s1'
p2551
F0.5616695602989052
sS'right_w0'
p2552
F-0.7259288222363027
sS'right_w1'
p2553
F-1.1956364622035398
sS'right_w2'
p2554
F2.1107921240079364
sS'right_e0'
p2555
F1.1322109884831777
sS'right_e1'
p2556
F1.3231262718161565
ssS'-0.065'
p2557
(dp2558
S'right_s0'
p2559
F0.3403860654229147
sS'right_s1'
p2560
F0.5616204400040692
sS'right_w0'
p2561
F-0.7259220226704057
sS'right_w1'
p2562
F-1.1956788693547589
sS'right_w2'
p2563
F2.1107912142970573
sS'right_e0'
p2564
F1.131904405354689
sS'right_e1'
p2565
F1.3231534948749761
ssS'-0.064'
p2566
(dp2567
S'right_s0'
p2568
F0.3407966911791558
sS'right_s1'
p2569
F0.5616249405357499
sS'right_w0'
p2570
F-0.7259610629865287
sS'right_w1'
p2571
F-1.195657380970153
sS'right_w2'
p2572
F2.1108043861156567
sS'right_e0'
p2573
F1.1320099465852946
sS'right_e1'
p2574
F1.3232442454721678
ssS'-0.067'
p2575
(dp2576
S'right_s0'
p2577
F0.33999654492017495
sS'right_s1'
p2578
F0.5616195206854258
sS'right_w0'
p2579
F-0.7258910895288109
sS'right_w1'
p2580
F-1.1956889969924713
sS'right_w2'
p2581
F2.1107886973552077
sS'right_e0'
p2582
F1.131837868588672
sS'right_e1'
p2583
F1.323075139697167
ssS'-0.066'
p2584
(dp2585
S'right_s0'
p2586
F0.3403860654229147
sS'right_s1'
p2587
F0.5616204400040692
sS'right_w0'
p2588
F-0.7259220226704057
sS'right_w1'
p2589
F-1.1956788693547589
sS'right_w2'
p2590
F2.1107912142970573
sS'right_e0'
p2591
F1.131904405354689
sS'right_e1'
p2592
F1.3231534948749761
ssS'-0.503'
p2593
(dp2594
S'right_s0'
p2595
F-0.2906523859828525
sS'right_s1'
p2596
F0.24033141334456687
sS'right_w0'
p2597
F-1.1432099698134852
sS'right_w1'
p2598
F-0.8448935175308971
sS'right_w2'
p2599
F2.77375352317919
sS'right_e0'
p2600
F0.8231511176826061
sS'right_e1'
p2601
F1.3241174328860321
ssS'-0.115'
p2602
(dp2603
S'right_s0'
p2604
F0.23491728158446534
sS'right_s1'
p2605
F0.5340877651864266
sS'right_w0'
p2606
F-0.7515557843309546
sS'right_w1'
p2607
F-1.1686437772548919
sS'right_w2'
p2608
F2.1353839255281013
sS'right_e0'
p2609
F1.082015026171824
sS'right_e1'
p2610
F1.3802694127305895
ssS'-0.114'
p2611
(dp2612
S'right_s0'
p2613
F0.23491728158446534
sS'right_s1'
p2614
F0.5340877651864266
sS'right_w0'
p2615
F-0.7515557843309546
sS'right_w1'
p2616
F-1.1686437772548919
sS'right_w2'
p2617
F2.1353839255281013
sS'right_e0'
p2618
F1.082015026171824
sS'right_e1'
p2619
F1.3802694127305895
ssS'-0.117'
p2620
(dp2621
S'right_s0'
p2622
F0.21965207397357833
sS'right_s1'
p2623
F0.5291455805411873
sS'right_w0'
p2624
F-0.7559168594043877
sS'right_w1'
p2625
F-1.1634320834436913
sS'right_w2'
p2626
F2.1404145516928814
sS'right_e0'
p2627
F1.0744528726277487
sS'right_e1'
p2628
F1.3884487056070016
ssS'-0.116'
p2629
(dp2630
S'right_s0'
p2631
F0.21091587687008417
sS'right_s1'
p2632
F0.5266200702154326
sS'right_w0'
p2633
F-0.7583215917702633
sS'right_w1'
p2634
F-1.1608857123169398
sS'right_w2'
p2635
F2.143463207389819
sS'right_e0'
p2636
F1.0704777423774534
sS'right_e1'
p2637
F1.3929334592283293
ssS'-0.111'
p2638
(dp2639
S'right_s0'
p2640
F0.23568080470912278
sS'right_s1'
p2641
F0.534133609055619
sS'right_w0'
p2642
F-0.7515898907055814
sS'right_w1'
p2643
F-1.1685845282060834
sS'right_w2'
p2644
F2.135395879060539
sS'right_e0'
p2645
F1.08212978083054
sS'right_e1'
p2646
F1.3803767766143702
ssS'-0.113'
p2647
(dp2648
S'right_s0'
p2649
F0.23528494420134294
sS'right_s1'
p2650
F0.5340994139603854
sS'right_w0'
p2651
F-0.7515668267640034
sS'right_w1'
p2652
F-1.1685982484061501
sS'right_w2'
p2653
F2.135387172291958
sS'right_e0'
p2654
F1.0820491154394798
sS'right_e1'
p2655
F1.380304931557724
ssS'-0.112'
p2656
(dp2657
S'right_s0'
p2658
F0.23568080470912278
sS'right_s1'
p2659
F0.534133609055619
sS'right_w0'
p2660
F-0.7515898907055814
sS'right_w1'
p2661
F-1.1685845282060834
sS'right_w2'
p2662
F2.135395879060539
sS'right_e0'
p2663
F1.08212978083054
sS'right_e1'
p2664
F1.3803767766143702
ssS'-0.119'
p2665
(dp2666
S'right_s0'
p2667
F0.21914222176277498
sS'right_s1'
p2668
F0.5290359623366214
sS'right_w0'
p2669
F-0.756003360020542
sS'right_w1'
p2670
F-1.1633543330766418
sS'right_w2'
p2671
F2.140492931574105
sS'right_e0'
p2672
F1.0742664471302046
sS'right_e1'
p2673
F1.3885907694542476
ssS'-0.118'
p2674
(dp2675
S'right_s0'
p2676
F0.21914222176277498
sS'right_s1'
p2677
F0.5290359623366214
sS'right_w0'
p2678
F-0.756003360020542
sS'right_w1'
p2679
F-1.1633543330766418
sS'right_w2'
p2680
F2.140492931574105
sS'right_e0'
p2681
F1.0742664471302046
sS'right_e1'
p2682
F1.3885907694542476
ssS'-0.59'
p2683
(dp2684
S'right_s0'
p2685
F-0.30875789257683284
sS'right_s1'
p2686
F0.19686042989398178
sS'right_w0'
p2687
F-1.2993165156747102
sS'right_w1'
p2688
F-0.8205099772287081
sS'right_w2'
p2689
F3.0503356991945783
sS'right_e0'
p2690
F0.7617669467277768
sS'right_e1'
p2691
F1.1627098535069917
ssS'-0.568'
p2692
(dp2693
S'right_s0'
p2694
F-0.3083446308042861
sS'right_s1'
p2695
F0.20660435273256006
sS'right_w0'
p2696
F-1.2520485806354422
sS'right_w1'
p2697
F-0.822980265776315
sS'right_w2'
p2698
F2.969009325897959
sS'right_e0'
p2699
F0.7815373315733627
sS'right_e1'
p2700
F1.2180611191832647
ssS'-0.569'
p2701
(dp2702
S'right_s0'
p2703
F-0.3083014098669744
sS'right_s1'
p2704
F0.2017033599963235
sS'right_w0'
p2705
F-1.2724144338248586
sS'right_w1'
p2706
F-0.8216885793625329
sS'right_w2'
p2707
F3.007511944414782
sS'right_e0'
p2708
F0.7730769426394056
sS'right_e1'
p2709
F1.19553585271262
ssS'-0.51'
p2710
(dp2711
S'right_s0'
p2712
F-0.2943163371261601
sS'right_s1'
p2713
F0.23496068732140607
sS'right_w0'
p2714
F-1.1584778704013203
sS'right_w1'
p2715
F-0.8403576449478916
sS'right_w2'
p2716
F2.8001556930411517
sS'right_e0'
p2717
F0.8178488241312509
sS'right_e1'
p2718
F1.3109194177709842
ssS'-0.53'
p2719
(dp2720
S'right_s0'
p2721
F-0.30118324290355947
sS'right_s1'
p2722
F0.2248188529314934
sS'right_w0'
p2723
F-1.189224442198542
sS'right_w1'
p2724
F-0.8326273868639582
sS'right_w2'
p2725
F2.854080726578214
sS'right_e0'
p2726
F0.8066528966148745
sS'right_e1'
p2727
F1.2826998539642958
ssS'-0.031'
p2728
(dp2729
S'right_s0'
p2730
F0.415482956974043
sS'right_s1'
p2731
F0.5764023809955798
sS'right_w0'
p2732
F-0.7091109508460907
sS'right_w1'
p2733
F-1.209308619005375
sS'right_w2'
p2734
F2.1001448463964145
sS'right_e0'
p2735
F1.1673871761708163
sS'right_e1'
p2736
F1.2767796923942711
ssS'-0.55'
p2737
(dp2738
S'right_s0'
p2739
F-0.30583817483982045
sS'right_s1'
p2740
F0.2152774598725209
sS'right_w0'
p2741
F-1.2204674216568705
sS'right_w1'
p2742
F-0.8268262389871799
sS'right_w2'
p2743
F2.910461340982547
sS'right_e0'
p2744
F0.7945951166114424
sS'right_e1'
p2745
F1.2518320449785216
ssS'-0.54'
p2746
(dp2747
S'right_s0'
p2748
F-0.3037511155472892
sS'right_s1'
p2749
F0.2199585482740556
sS'right_w0'
p2750
F-1.2047597100545042
sS'right_w1'
p2751
F-0.8295490533024505
sS'right_w2'
p2752
F2.881941499424798
sS'right_e0'
p2753
F0.8007606564617236
sS'right_e1'
p2754
F1.267632806678554
ssS'-0.57'
p2755
(dp2756
S'right_s0'
p2757
F-0.30860622424691986
sS'right_s1'
p2758
F0.20270752869406827
sS'right_w0'
p2759
F-1.267846806934556
sS'right_w1'
p2760
F-0.8218388728268335
sS'right_w2'
p2761
F2.998785063470269
sS'right_e0'
p2762
F0.774700660765455
sS'right_e1'
p2763
F1.2001649096977332
ssS'-0.56'
p2764
(dp2765
S'right_s0'
p2766
F-0.30781001939836916
sS'right_s1'
p2767
F0.20554540650366057
sS'right_w0'
p2768
F-1.2566601367999133
sS'right_w1'
p2769
F-0.822731728353287
sS'right_w2'
p2770
F2.9775196690111283
sS'right_e0'
p2771
F0.7800964753814457
sS'right_e1'
p2772
F1.2137141060557484
ssS'-0.447'
p2773
(dp2774
S'right_s0'
p2775
F-0.25645147199571916
sS'right_s1'
p2776
F0.27599960477566476
sS'right_w0'
p2777
F-1.0558579156470067
sS'right_w1'
p2778
F-0.8806216764952746
sS'right_w2'
p2779
F2.626195808910662
sS'right_e0'
p2780
F0.852771723115997
sS'right_e1'
p2781
F1.3912575556951703
ssS'-0.446'
p2782
(dp2783
S'right_s0'
p2784
F-0.25645147199571916
sS'right_s1'
p2785
F0.27599960477566476
sS'right_w0'
p2786
F-1.0558579156470067
sS'right_w1'
p2787
F-0.8806216764952746
sS'right_w2'
p2788
F2.626195808910662
sS'right_e0'
p2789
F0.852771723115997
sS'right_e1'
p2790
F1.3912575556951703
ssS'-0.445'
p2791
(dp2792
S'right_s0'
p2793
F-0.25604612998892495
sS'right_s1'
p2794
F0.27603961363875307
sS'right_w0'
p2795
F-1.055869132343954
sS'right_w1'
p2796
F-0.8805780249655628
sS'right_w2'
p2797
F2.6262033831438174
sS'right_e0'
p2798
F0.8527725013446723
sS'right_e1'
p2799
F1.3913137421843427
ssS'-0.444'
p2800
(dp2801
S'right_s0'
p2802
F-0.2557852403219334
sS'right_s1'
p2803
F0.27610485157743536
sS'right_w0'
p2804
F-1.0558702484436644
sS'right_w1'
p2805
F-0.8805617875432858
sS'right_w2'
p2806
F2.6262125373486196
sS'right_e0'
p2807
F0.8527937377027088
sS'right_e1'
p2808
F1.391326539446304
ssS'-0.443'
p2809
(dp2810
S'right_s0'
p2811
F-0.25556306532175466
sS'right_s1'
p2812
F0.27624746335365646
sS'right_w0'
p2813
F-1.055738130682876
sS'right_w1'
p2814
F-0.8806378474487131
sS'right_w2'
p2815
F2.6259636271676357
sS'right_e0'
p2816
F0.852868930020704
sS'right_e1'
p2817
F1.3914983022774043
ssS'-0.442'
p2818
(dp2819
S'right_s0'
p2820
F-0.25749308495737905
sS'right_s1'
p2821
F0.27413785744561986
sS'right_w0'
p2822
F-1.0609428963211691
sS'right_w1'
p2823
F-0.8780619726076935
sS'right_w2'
p2824
F2.634710626170098
sS'right_e0'
p2825
F0.8512499478668314
sS'right_e1'
p2826
F1.3885770557348276
ssS'-0.441'
p2827
(dp2828
S'right_s0'
p2829
F-0.24990327520968325
sS'right_s1'
p2830
F0.28218958964213403
sS'right_w0'
p2831
F-1.042481672619739
sS'right_w1'
p2832
F-0.8876339736421519
sS'right_w2'
p2833
F2.6040898158171633
sS'right_e0'
p2834
F0.8573166113388142
sS'right_e1'
p2835
F1.4001217628840825
ssS'-0.524'
p2836
(dp2837
S'right_s0'
p2838
F-0.30095494545332196
sS'right_s1'
p2839
F0.2234376821427397
sS'right_w0'
p2840
F-1.194130313140321
sS'right_w1'
p2841
F-0.8317447372378745
sS'right_w2'
p2842
F2.862727859356699
sS'right_e0'
p2843
F0.8054581626864719
sS'right_e1'
p2844
F1.2788886113528917
ssS'-0.525'
p2845
(dp2846
S'right_s0'
p2847
F-0.3006585650240581
sS'right_s1'
p2848
F0.2248187939358557
sS'right_w0'
p2849
F-1.1892869172029554
sS'right_w1'
p2850
F-0.8327203876480445
sS'right_w2'
p2851
F2.8540560840603924
sS'right_e0'
p2852
F0.8069599453771055
sS'right_e1'
p2853
F1.2828497814313504
ssS'-0.526'
p2854
(dp2855
S'right_s0'
p2856
F-0.3007312578028616
sS'right_s1'
p2857
F0.2247923151889566
sS'right_w0'
p2858
F-1.189247202349856
sS'right_w1'
p2859
F-0.8326728567330708
sS'right_w2'
p2860
F2.8541023204102007
sS'right_e0'
p2861
F0.8068088995289218
sS'right_e1'
p2862
F1.282734186838459
ssS'-0.527'
p2863
(dp2864
S'right_s0'
p2865
F-0.300855036979482
sS'right_s1'
p2866
F0.22479415798925562
sS'right_w0'
p2867
F-1.1892533987371428
sS'right_w1'
p2868
F-0.8326488049230036
sS'right_w2'
p2869
F2.8540952780159614
sS'right_e0'
p2870
F0.8067587518599897
sS'right_e1'
p2871
F1.2827852436502791
ssS'-0.521'
p2872
(dp2873
S'right_s0'
p2874
F-0.29812310750505855
sS'right_s1'
p2875
F0.22984984202805858
sS'right_w0'
p2876
F-1.1738023949704406
sS'right_w1'
p2877
F-0.8362474475787565
sS'right_w2'
p2878
F2.826740472111984
sS'right_e0'
p2879
F0.8123595638599062
sS'right_e1'
p2880
F1.2971364874969824
ssS'-0.449'
p2881
(dp2882
S'right_s0'
p2883
F-0.25691897203997094
sS'right_s1'
p2884
F0.27595669348049423
sS'right_w0'
p2885
F-1.0558454150120689
sS'right_w1'
p2886
F-0.8806354422372031
sS'right_w2'
p2887
F2.626197800044954
sS'right_e0'
p2888
F0.8527336002042762
sS'right_e1'
p2889
F1.3911909946895893
ssS'-0.448'
p2890
(dp2891
S'right_s0'
p2892
F-0.25679390046701656
sS'right_s1'
p2893
F0.2759669739349828
sS'right_w0'
p2894
F-1.0558769125501755
sS'right_w1'
p2895
F-0.8806076633722002
sS'right_w2'
p2896
F2.626186714975759
sS'right_e0'
p2897
F0.852751003928792
sS'right_e1'
p2898
F1.391214991481303
ssS'-0.011'
p2899
(dp2900
S'right_s0'
p2901
F0.4715058902855729
sS'right_s1'
p2902
F0.5832290780664984
sS'right_w0'
p2903
F-0.7012883385489035
sS'right_w1'
p2904
F-1.2132522550908513
sS'right_w2'
p2905
F2.1019834770328387
sS'right_e0'
p2906
F1.1933549926763272
sS'right_e1'
p2907
F1.236832682161026
ssS'-0.038'
p2908
(dp2909
S'right_s0'
p2910
F0.3967131064782059
sS'right_s1'
p2911
F0.573046546993103
sS'right_w0'
p2912
F-0.7132670377178325
sS'right_w1'
p2913
F-1.2062718766424574
sS'right_w2'
p2914
F2.1023034404759837
sS'right_e0'
p2915
F1.1585313508345774
sS'right_e1'
p2916
F1.288982530940669
ssS'-0.562'
p2917
(dp2918
S'right_s0'
p2919
F-0.3080310739603327
sS'right_s1'
p2920
F0.20662804666506318
sS'right_w0'
p2921
F-1.2520945926836013
sS'right_w1'
p2922
F-0.8229860325583536
sS'right_w2'
p2923
F2.9690516394807727
sS'right_e0'
p2924
F0.7815183628197611
sS'right_e1'
p2925
F1.2179841814595607
ssS'-0.563'
p2926
(dp2927
S'right_s0'
p2928
F-0.3081278332556643
sS'right_s1'
p2929
F0.20661925104921153
sS'right_w0'
p2930
F-1.2520966692987114
sS'right_w1'
p2931
F-0.822981133874852
sS'right_w2'
p2932
F2.969036680020835
sS'right_e0'
p2933
F0.7815772839417789
sS'right_e1'
p2934
F1.2181028128689508
ssS'-0.238'
p2935
(dp2936
S'right_s0'
p2937
F-0.014125700632592116
sS'right_s1'
p2938
F0.4348438728296736
sS'right_w0'
p2939
F-0.8367230947327798
sS'right_w1'
p2940
F-1.0618604965881924
sS'right_w2'
p2941
F2.25975640183885
sS'right_e0'
p2942
F0.9676200244773275
sS'right_e1'
p2943
F1.467006509584769
ssS'-0.239'
p2944
(dp2945
S'right_s0'
p2946
F-0.0059843530301053605
sS'right_s1'
p2947
F0.43989219358196685
sS'right_w0'
p2948
F-0.8313768495126252
sS'right_w1'
p2949
F-1.0681299519282055
sS'right_w2'
p2950
F2.2512040580741974
sS'right_e0'
p2951
F0.9721777338338686
sS'right_e1'
p2952
F1.4644451633350224
ssS'-0.231'
p2953
(dp2954
S'right_s0'
p2955
F0.015453636329849196
sS'right_s1'
p2956
F0.4501289489795246
sS'right_w0'
p2957
F-0.8217118066220959
sS'right_w1'
p2958
F-1.0799011175582738
sS'right_w2'
p2959
F2.2358790295223585
sS'right_e0'
p2960
F0.9815213142047234
sS'right_e1'
p2961
F1.4603996438753937
ssS'-0.232'
p2962
(dp2963
S'right_s0'
p2964
F-0.004369625928714614
sS'right_s1'
p2965
F0.43966064847313874
sS'right_w0'
p2966
F-0.8320967014874313
sS'right_w1'
p2967
F-1.067393977459013
sS'right_w2'
p2968
F2.252352399608824
sS'right_e0'
p2969
F0.9718623277235721
sS'right_e1'
p2970
F1.4654991941254867
ssS'-0.233'
p2971
(dp2972
S'right_s0'
p2973
F0.004296083683223095
sS'right_s1'
p2974
F0.44467435726659765
sS'right_w0'
p2975
F-0.8268569694106
sS'right_w1'
p2976
F-1.0736073321608934
sS'right_w2'
p2977
F2.2439777662689977
sS'right_e0'
p2978
F0.9764561664307738
sS'right_e1'
p2979
F1.4627553219966627
ssS'-0.234'
p2980
(dp2981
S'right_s0'
p2982
F0.004296083683223095
sS'right_s1'
p2983
F0.44467435726659765
sS'right_w0'
p2984
F-0.8268569694106
sS'right_w1'
p2985
F-1.0736073321608934
sS'right_w2'
p2986
F2.2439777662689977
sS'right_e0'
p2987
F0.9764561664307738
sS'right_e1'
p2988
F1.4627553219966627
ssS'-0.235'
p2989
(dp2990
S'right_s0'
p2991
F0.004231561216148094
sS'right_s1'
p2992
F0.4446164130379282
sS'right_w0'
p2993
F-0.8269133464965321
sS'right_w1'
p2994
F-1.07350639564212
sS'right_w2'
p2995
F2.244015506671996
sS'right_e0'
p2996
F0.9763846516165309
sS'right_e1'
p2997
F1.462846405260466
ssS'-0.236'
p2998
(dp2999
S'right_s0'
p3000
F0.004157176851008693
sS'right_s1'
p3001
F0.44462520033934005
sS'right_w0'
p3002
F-0.8269491680212484
sS'right_w1'
p3003
F-1.0734253046860491
sS'right_w2'
p3004
F2.244013076935939
sS'right_e0'
p3005
F0.9764078103747149
sS'right_e1'
p3006
F1.462915701583329
ssS'-0.237'
p3007
(dp3008
S'right_s0'
p3009
F0.004095579421120377
sS'right_s1'
p3010
F0.4446264340164934
sS'right_w0'
p3011
F-0.8268603554022196
sS'right_w1'
p3012
F-1.073493147939046
sS'right_w2'
p3013
F2.2440116788262845
sS'right_e0'
p3014
F0.9764169157626306
sS'right_e1'
p3015
F1.4628977531921796
ssS'-0.361'
p3016
(dp3017
S'right_s0'
p3018
F-0.175788319616637
sS'right_s1'
p3019
F0.33851081517370396
sS'right_w0'
p3020
F-0.9475554279728637
sS'right_w1'
p3021
F-0.9507620322130377
sS'right_w2'
p3022
F2.4446289219369817
sS'right_e0'
p3023
F0.8954563532332296
sS'right_e1'
p3024
F1.4531776451164582
ssS'-0.198'
p3025
(dp3026
S'right_s0'
p3027
F0.07249558688970215
sS'right_s1'
p3028
F0.4751636371414989
sS'right_w0'
p3029
F-0.799941637735408
sS'right_w1'
p3030
F-1.1074156217562674
sS'right_w2'
p3031
F2.2020070037226045
sS'right_e0'
p3032
F1.0063889032307776
sS'right_e1'
p3033
F1.4460597860432083
ssS'-0.304'
p3034
(dp3035
S'right_s0'
p3036
F-0.10051584613914599
sS'right_s1'
p3037
F0.3884725676453309
sS'right_w0'
p3038
F-0.8850523704502944
sS'right_w1'
p3039
F-1.007856665020669
sS'right_w2'
p3040
F2.3384853723083605
sS'right_e0'
p3041
F0.9306900972487098
sS'right_e1'
p3042
F1.4705045439938935
ssS'-0.305'
p3043
(dp3044
S'right_s0'
p3045
F-0.10047133939836073
sS'right_s1'
p3046
F0.3884602321813668
sS'right_w0'
p3047
F-0.8850151139026528
sS'right_w1'
p3048
F-1.0078781197690274
sS'right_w2'
p3049
F2.3384867526266753
sS'right_e0'
p3050
F0.9307145427737735
sS'right_e1'
p3051
F1.4705025842468036
ssS'-0.306'
p3052
(dp3053
S'right_s0'
p3054
F-0.115076997864728
sS'right_s1'
p3055
F0.3795515574782821
sS'right_w0'
p3056
F-0.8957129616426497
sS'right_w1'
p3057
F-0.9973368867246994
sS'right_w2'
p3058
F2.3566003824414854
sS'right_e0'
p3059
F0.9239211056999734
sS'right_e1'
p3060
F1.469513686838788
ssS'-0.307'
p3061
(dp3062
S'right_s0'
p3063
F-0.10885874677341167
sS'right_s1'
p3064
F0.3836013775328935
sS'right_w0'
p3065
F-0.8906612157148688
sS'right_w1'
p3066
F-1.0022128102615344
sS'right_w2'
p3067
F2.3479338443532782
sS'right_e0'
p3068
F0.9270353802885358
sS'right_e1'
p3069
F1.469847722443907
ssS'-0.301'
p3070
(dp3071
S'right_s0'
p3072
F-0.10071288273622514
sS'right_s1'
p3073
F0.38871075769341346
sS'right_w0'
p3074
F-0.8848610217862074
sS'right_w1'
p3075
F-1.008135908055925
sS'right_w2'
p3076
F2.3381676389933617
sS'right_e0'
p3077
F0.9307717539784655
sS'right_e1'
p3078
F1.47054197638605
ssS'-0.302'
p3079
(dp3080
S'right_s0'
p3081
F-0.1006416756362194
sS'right_s1'
p3082
F0.38854460434859295
sS'right_w0'
p3083
F-0.8850856478371734
sS'right_w1'
p3084
F-1.0078823307101477
sS'right_w2'
p3085
F2.3384827326746134
sS'right_e0'
p3086
F0.9306933305528053
sS'right_e1'
p3087
F1.4705302719020326
ssS'-0.303'
p3088
(dp3089
S'right_s0'
p3090
F-0.10053295814302388
sS'right_s1'
p3091
F0.3884786855691642
sS'right_w0'
p3092
F-0.8850206640455704
sS'right_w1'
p3093
F-1.0078753989566795
sS'right_w2'
p3094
F2.338486502711582
sS'right_e0'
p3095
F0.9306758602049197
sS'right_e1'
p3096
F1.4705043448306974
ssS'-0.308'
p3097
(dp3098
S'right_s0'
p3099
F-0.10885874677341167
sS'right_s1'
p3100
F0.3836013775328935
sS'right_w0'
p3101
F-0.8906612157148688
sS'right_w1'
p3102
F-1.0022128102615344
sS'right_w2'
p3103
F2.3479338443532782
sS'right_e0'
p3104
F0.9270353802885358
sS'right_e1'
p3105
F1.469847722443907
ssS'-0.309'
p3106
(dp3107
S'right_s0'
p3108
F-0.10875062738098773
sS'right_s1'
p3109
F0.38350965040851204
sS'right_w0'
p3110
F-0.8906417688458852
sS'right_w1'
p3111
F-1.0021590902886919
sS'right_w2'
p3112
F2.3479601119521476
sS'right_e0'
p3113
F0.9270200012751681
sS'right_e1'
p3114
F1.469806602929303
ssS'-0.538'
p3115
(dp3116
S'right_s0'
p3117
F-0.303654680010335
sS'right_s1'
p3118
F0.21994559319763685
sS'right_w0'
p3119
F-1.2047662426115018
sS'right_w1'
p3120
F-0.8295545321809401
sS'right_w2'
p3121
F2.881960703344209
sS'right_e0'
p3122
F0.800784463245547
sS'right_e1'
p3123
F1.2677101449110255
ssS'-0.368'
p3124
(dp3125
S'right_s0'
p3126
F-0.1825677458230368
sS'right_s1'
p3127
F0.3336138469817973
sS'right_w0'
p3128
F-0.9544734176677663
sS'right_w1'
p3129
F-0.9452810348148297
sS'right_w2'
p3130
F2.4564913808212516
sS'right_e0'
p3131
F0.8920493010060708
sS'right_e1'
p3132
F1.4501602958391482
ssS'-0.191'
p3133
(dp3134
S'right_s0'
p3135
F0.08371917588760613
sS'right_s1'
p3136
F0.4794323339947164
sS'right_w0'
p3137
F-0.7964435316506764
sS'right_w1'
p3138
F-1.1118665661283558
sS'right_w2'
p3139
F2.196687054968656
sS'right_e0'
p3140
F1.0109835100855564
sS'right_e1'
p3141
F1.442994529786044
ssS'-0.455'
p3142
(dp3143
S'right_s0'
p3144
F-0.2628460380691431
sS'right_s1'
p3145
F0.26986059515098315
sS'right_w0'
p3146
F-1.0694357287565106
sS'right_w1'
p3147
F-0.8738854381132111
sS'right_w2'
p3148
F2.6488348199459697
sS'right_e0'
p3149
F0.8481983540812816
sS'right_e1'
p3150
F1.3818072273848427
ssS'-0.159'
p3151
(dp3152
S'right_s0'
p3153
F0.12540943254302667
sS'right_s1'
p3154
F0.49626450400261274
sS'right_w0'
p3155
F-0.7829621599276919
sS'right_w1'
p3156
F-1.1297120924006652
sS'right_w2'
p3157
F2.176762109705384
sS'right_e0'
p3158
F1.0302893530073345
sS'right_e1'
p3159
F1.4292151746087955
ssS'-0.158'
p3160
(dp3161
S'right_s0'
p3162
F0.1467745206030573
sS'right_s1'
p3163
F0.5042249951374522
sS'right_w0'
p3164
F-0.7762288207621708
sS'right_w1'
p3165
F-1.1380962725110981
sS'right_w2'
p3166
F2.166929927561254
sS'right_e0'
p3167
F1.0403501460768396
sS'right_e1'
p3168
F1.4203718651214867
ssS'-0.012'
p3169
(dp3170
S'right_s0'
p3171
F0.4463736384250182
sS'right_s1'
p3172
F0.5815485350711649
sS'right_w0'
p3173
F-0.7024110281388285
sS'right_w1'
p3174
F-1.2139544070724748
sS'right_w2'
p3175
F2.0971401321950007
sS'right_e0'
p3176
F1.1821935652797257
sS'right_e1'
p3177
F1.2569909781385717
ssS'-0.013'
p3178
(dp3179
S'right_s0'
p3180
F0.4551904051203728
sS'right_s1'
p3181
F0.582080585112756
sS'right_w0'
p3182
F-0.7020194440826169
sS'right_w1'
p3183
F-1.213517188666951
sS'right_w2'
p3184
F2.098394485922622
sS'right_e0'
p3185
F1.1854185608992065
sS'right_e1'
p3186
F1.2508392496377478
ssS'-0.014'
p3187
(dp3188
S'right_s0'
p3189
F0.4543259342349817
sS'right_s1'
p3190
F0.5820703290124323
sS'right_w0'
p3191
F-0.7020023708551735
sS'right_w1'
p3192
F-1.2135682834789137
sS'right_w2'
p3193
F2.0983326994135076
sS'right_e0'
p3194
F1.1851539422550328
sS'right_e1'
p3195
F1.2510126691616428
ssS'-0.015'
p3196
(dp3197
S'right_s0'
p3198
F0.4543259342349817
sS'right_s1'
p3199
F0.5820703290124323
sS'right_w0'
p3200
F-0.7020023708551735
sS'right_w1'
p3201
F-1.2135682834789137
sS'right_w2'
p3202
F2.0983326994135076
sS'right_e0'
p3203
F1.1851539422550328
sS'right_e1'
p3204
F1.2510126691616428
ssS'-0.016'
p3205
(dp3206
S'right_s0'
p3207
F0.4543259342349817
sS'right_s1'
p3208
F0.5820703290124323
sS'right_w0'
p3209
F-0.7020023708551735
sS'right_w1'
p3210
F-1.2135682834789137
sS'right_w2'
p3211
F2.0983326994135076
sS'right_e0'
p3212
F1.1851539422550328
sS'right_e1'
p3213
F1.2510126691616428
ssS'-0.017'
p3214
(dp3215
S'right_s0'
p3216
F0.4536108644366639
sS'right_s1'
p3217
F0.5820911470977483
sS'right_w0'
p3218
F-0.7019784622293468
sS'right_w1'
p3219
F-1.2136516335101124
sS'right_w2'
p3220
F2.0983282084037462
sS'right_e0'
p3221
F1.1850275935882824
sS'right_e1'
p3222
F1.2509367178531408
ssS'-0.151'
p3223
(dp3224
S'right_s0'
p3225
F0.16031584872195648
sS'right_s1'
p3226
F0.5091754994326525
sS'right_w0'
p3227
F-0.7722617191474939
sS'right_w1'
p3228
F-1.1431536161826186
sS'right_w2'
p3229
F2.1614023334401793
sS'right_e0'
p3230
F1.04665052222565
sS'right_e1'
p3231
F1.414846834802412
ssS'-0.019'
p3232
(dp3233
S'right_s0'
p3234
F0.4532820912467024
sS'right_s1'
p3235
F0.5821023037998101
sS'right_w0'
p3236
F-0.7019698967618551
sS'right_w1'
p3237
F-1.2136513371688284
sS'right_w2'
p3238
F2.098324641713287
sS'right_e0'
p3239
F1.184989325693472
sS'right_e1'
p3240
F1.2508865333573898
ssS'-0.153'
p3241
(dp3242
S'right_s0'
p3243
F0.14765344891699783
sS'right_s1'
p3244
F0.5044887070570185
sS'right_w0'
p3245
F-0.7761626787989782
sS'right_w1'
p3246
F-1.1381124366354038
sS'right_w2'
p3247
F2.16683703780393
sS'right_e0'
p3248
F1.0404275677799415
sS'right_e1'
p3249
F1.4203436139427215
ssS'-0.152'
p3250
(dp3251
S'right_s0'
p3252
F0.13885754724939975
sS'right_s1'
p3253
F0.5014416905022736
sS'right_w0'
p3254
F-0.7788218023066336
sS'right_w1'
p3255
F-1.1350696270154985
sS'right_w2'
p3256
F2.1707674315899315
sS'right_e0'
p3257
F1.036582225692707
sS'right_e1'
p3258
F1.4240482227108369
ssS'-0.155'
p3259
(dp3260
S'right_s0'
p3261
F0.14738977276089837
sS'right_s1'
p3262
F0.5043467149517449
sS'right_w0'
p3263
F-0.7762658036714098
sS'right_w1'
p3264
F-1.1380055239732627
sS'right_w2'
p3265
F2.1669470677190965
sS'right_e0'
p3266
F1.0403339926823474
sS'right_e1'
p3267
F1.4204903835134868
ssS'-0.154'
p3268
(dp3269
S'right_s0'
p3270
F0.14738977276089837
sS'right_s1'
p3271
F0.5043467149517449
sS'right_w0'
p3272
F-0.7762658036714098
sS'right_w1'
p3273
F-1.1380055239732627
sS'right_w2'
p3274
F2.1669470677190965
sS'right_e0'
p3275
F1.0403339926823474
sS'right_e1'
p3276
F1.4204903835134868
ssS'-0.157'
p3277
(dp3278
S'right_s0'
p3279
F0.14696698112224738
sS'right_s1'
p3280
F0.5042472731278123
sS'right_w0'
p3281
F-0.7762273977121499
sS'right_w1'
p3282
F-1.1380702021957507
sS'right_w2'
p3283
F2.1669350790503525
sS'right_e0'
p3284
F1.040332682441675
sS'right_e1'
p3285
F1.4203958540634858
ssS'-0.156'
p3286
(dp3287
S'right_s0'
p3288
F0.14718597857534377
sS'right_s1'
p3289
F0.5042791223453813
sS'right_w0'
p3290
F-0.7762570113923095
sS'right_w1'
p3291
F-1.138064362650324
sS'right_w2'
p3292
F2.166937093038147
sS'right_e0'
p3293
F1.04032034922506
sS'right_e1'
p3294
F1.4204186600214008
ssS'-0.358'
p3295
(dp3296
S'right_s0'
p3297
F-0.16893587419376654
sS'right_s1'
p3298
F0.3433899626309067
sS'right_w0'
p3299
F-0.9406911782334095
sS'right_w1'
p3300
F-0.9563077091995025
sS'right_w2'
p3301
F2.4329559108607075
sS'right_e0'
p3302
F0.8987305176206064
sS'right_e1'
p3303
F1.4559170785037692
ssS'-0.409'
p3304
(dp3305
S'right_s0'
p3306
F-0.22514445214644319
sS'right_s1'
p3307
F0.30148404093936865
sS'right_w0'
p3308
F-1.0059310284145146
sS'right_w1'
p3309
F-0.9089373420379729
sS'right_w2'
p3310
F2.5434011051039107
sS'right_e0'
p3311
F0.8701603707970982
sS'right_e1'
p3312
F1.4232510089960595
ssS'-0.408'
p3313
(dp3314
S'right_s0'
p3315
F-0.2248178706406705
sS'right_s1'
p3316
F0.3016199947438869
sS'right_w0'
p3317
F-1.005948201598164
sS'right_w1'
p3318
F-0.9089388761707466
sS'right_w2'
p3319
F2.543307278556016
sS'right_e0'
p3320
F0.8701547045746043
sS'right_e1'
p3321
F1.423361679976149
ssS'-0.403'
p3322
(dp3323
S'right_s0'
p3324
F-0.21767049952652773
sS'right_s1'
p3325
F0.3075063728685068
sS'right_w0'
p3326
F-0.9953962563661953
sS'right_w1'
p3327
F-0.9158164348861861
sS'right_w2'
p3328
F2.525700917703249
sS'right_e0'
p3329
F0.8741805796697175
sS'right_e1'
p3330
F1.4292304897507169
ssS'-0.402'
p3331
(dp3332
S'right_s0'
p3333
F-0.21746198827240093
sS'right_s1'
p3334
F0.3075544230115952
sS'right_w0'
p3335
F-0.9953841302650135
sS'right_w1'
p3336
F-0.9157387021983343
sS'right_w2'
p3337
F2.525702755366936
sS'right_e0'
p3338
F0.8741834156169439
sS'right_e1'
p3339
F1.429204840335463
ssS'-0.401'
p3340
(dp3341
S'right_s0'
p3342
F-0.21704090155151867
sS'right_s1'
p3343
F0.30766713864456285
sS'right_w0'
p3344
F-0.9954070036913949
sS'right_w1'
p3345
F-0.9157486590476589
sS'right_w2'
p3346
F2.5256725994572164
sS'right_e0'
p3347
F0.8742633641209867
sS'right_e1'
p3348
F1.4294838839662587
ssS'-0.407'
p3349
(dp3350
S'right_s0'
p3351
F-0.22835888520210817
sS'right_s1'
p3352
F0.2988708411028902
sS'right_w0'
p3353
F-1.0109833765159566
sS'right_w1'
p3354
F-0.9059457017454949
sS'right_w2'
p3355
F2.551946172857049
sS'right_e0'
p3356
F0.868591328492865
sS'right_e1'
p3357
F1.420885395899543
ssS'-0.406'
p3358
(dp3359
S'right_s0'
p3360
F-0.21812502315220073
sS'right_s1'
p3361
F0.30745784888484184
sS'right_w0'
p3362
F-0.9953673872964384
sS'right_w1'
p3363
F-0.9158377440492202
sS'right_w2'
p3364
F2.52568828341391
sS'right_e0'
p3365
F0.8741811316160426
sS'right_e1'
p3366
F1.4291465561862386
ssS'-0.405'
p3367
(dp3368
S'right_s0'
p3369
F-0.21797567632378634
sS'right_s1'
p3370
F0.30747142078502243
sS'right_w0'
p3371
F-0.9953684070860884
sS'right_w1'
p3372
F-0.91583945071587
sS'right_w2'
p3373
F2.5256917034222006
sS'right_e0'
p3374
F0.8741821155269172
sS'right_e1'
p3375
F1.429161311840459
ssS'-0.404'
p3376
(dp3377
S'right_s0'
p3378
F-0.21783218147857042
sS'right_s1'
p3379
F0.3074973541234023
sS'right_w0'
p3380
F-0.995379628674331
sS'right_w1'
p3381
F-0.9158293163189892
sS'right_w2'
p3382
F2.525696844269424
sS'right_e0'
p3383
F0.8741916801174234
sS'right_e1'
p3384
F1.4291913572511739
ssS'-0.351'
p3385
(dp3386
S'right_s0'
p3387
F-0.1618824985255145
sS'right_s1'
p3388
F0.3483221559135572
sS'right_w0'
p3389
F-0.9341033996861752
sS'right_w1'
p3390
F-0.9618234127917829
sS'right_w2'
p3391
F2.4216987060442055
sS'right_e0'
p3392
F0.9021624631294785
sS'right_e1'
p3393
F1.4584634563577632
ssS'-0.06'
p3394
(dp3395
S'right_s0'
p3396
F0.3327290592740528
sS'right_s1'
p3397
F0.5598905419250443
sS'right_w0'
p3398
F-0.7280877895955091
sS'right_w1'
p3399
F-1.1939815751699046
sS'right_w2'
p3400
F2.112660697225762
sS'right_e0'
p3401
F1.1282777667464192
sS'right_e1'
p3402
F1.328582204331192
ssS'-0.07'
p3403
(dp3404
S'right_s0'
p3405
F0.3233500549129884
sS'right_s1'
p3406
F0.5575068983712805
sS'right_w0'
p3407
F-0.7301120268976886
sS'right_w1'
p3408
F-1.1916814855718378
sS'right_w2'
p3409
F2.1141904781078473
sS'right_e0'
p3410
F1.1236318119581066
sS'right_e1'
p3411
F1.333602686254677
ssS'-0.04'
p3412
(dp3413
S'right_s0'
p3414
F0.3962600552859561
sS'right_s1'
p3415
F0.5730489557507621
sS'right_w0'
p3416
F-0.713255227375468
sS'right_w1'
p3417
F-1.206300166354083
sS'right_w2'
p3418
F2.1023000155433422
sS'right_e0'
p3419
F1.1584080241800159
sS'right_e1'
p3420
F1.2889554675089068
ssS'-0.05'
p3421
(dp3422
S'right_s0'
p3423
F0.3771581086950482
sS'right_s1'
p3424
F0.5694485992697658
sS'right_w0'
p3425
F-0.7174179575332049
sS'right_w1'
p3426
F-1.2029935897150184
sS'right_w2'
p3427
F2.1048226791964364
sS'right_e0'
p3428
F1.1494588429353092
sS'right_e1'
p3429
F1.300674407675575
ssS'-0.02'
p3430
(dp3431
S'right_s0'
p3432
F0.4268331405854406
sS'right_s1'
p3433
F0.5784049615888601
sS'right_w0'
p3434
F-0.7066987828199659
sS'right_w1'
p3435
F-1.2112691379332519
sS'right_w2'
p3436
F2.0990494351933138
sS'right_e0'
p3437
F1.172906613803907
sS'right_e1'
p3438
F1.2700613854636431
ssS'-0.03'
p3439
(dp3440
S'right_s0'
p3441
F0.4160382824868849
sS'right_s1'
p3442
F0.5764147520599039
sS'right_w0'
p3443
F-0.709091115826177
sS'right_w1'
p3444
F-1.209305896828993
sS'right_w2'
p3445
F2.1001390542456377
sS'right_e0'
p3446
F1.16758767478923
sS'right_e1'
p3447
F1.2767041533224095
ssS'-0.01'
p3448
(dp3449
S'right_s0'
p3450
F0.47114585366158845
sS'right_s1'
p3451
F0.583193123655966
sS'right_w0'
p3452
F-0.7012742559602234
sS'right_w1'
p3453
F-1.2132584427683568
sS'right_w2'
p3454
F2.1019876229403565
sS'right_e0'
p3455
F1.1933721976791487
sS'right_e1'
p3456
F1.2367731027044728
ssS'-0.08'
p3457
(dp3458
S'right_s0'
p3459
F0.3046530491021304
sS'right_s1'
p3460
F0.553096350822492
sS'right_w0'
p3461
F-0.7344528939174131
sS'right_w1'
p3462
F-1.1874063962614443
sS'right_w2'
p3463
F2.1179352629824955
sS'right_e0'
p3464
F1.1148290833927081
sS'right_e1'
p3465
F1.3439741076212002
ssS'-0.09'
p3466
(dp3467
S'right_s0'
p3468
F0.286603928086004
sS'right_s1'
p3469
F0.5486005257690891
sS'right_w0'
p3470
F-0.7386579700596831
sS'right_w1'
p3471
F-1.1830319425226081
sS'right_w2'
p3472
F2.1218474332359527
sS'right_e0'
p3473
F1.1064348646691133
sS'right_e1'
p3474
F1.353459271602353
ssS'-0.577'
p3475
(dp3476
S'right_s0'
p3477
F-0.30899793226443517
sS'right_s1'
p3478
F0.2026898087510185
sS'right_w0'
p3479
F-1.2679422190289902
sS'right_w1'
p3480
F-0.8217909826346688
sS'right_w2'
p3481
F2.9989961764063704
sS'right_e0'
p3482
F0.774641461968721
sS'right_e1'
p3483
F1.200026585310872
ssS'-0.576'
p3484
(dp3485
S'right_s0'
p3486
F-0.3089833854219908
sS'right_s1'
p3487
F0.2026840109200787
sS'right_w0'
p3488
F-1.2679265541993825
sS'right_w1'
p3489
F-0.8217911464046743
sS'right_w2'
p3490
F2.998989558532756
sS'right_e0'
p3491
F0.7746395490578282
sS'right_e1'
p3492
F1.2000277845336313
ssS'-0.575'
p3493
(dp3494
S'right_s0'
p3495
F-0.3088976133388259
sS'right_s1'
p3496
F0.20269263326474274
sS'right_w0'
p3497
F-1.2679323058286291
sS'right_w1'
p3498
F-0.821778730793282
sS'right_w2'
p3499
F2.9990085267006066
sS'right_e0'
p3500
F0.7746349980995575
sS'right_e1'
p3501
F1.1999983475890117
ssS'-0.574'
p3502
(dp3503
S'right_s0'
p3504
F-0.30886923225178897
sS'right_s1'
p3505
F0.2026923597018806
sS'right_w0'
p3506
F-1.267930472417504
sS'right_w1'
p3507
F-0.8217831997014393
sS'right_w2'
p3508
F2.999010244681932
sS'right_e0'
p3509
F0.7746344623224051
sS'right_e1'
p3510
F1.2000185114590112
ssS'-0.278'
p3511
(dp3512
S'right_s0'
p3513
F-0.06606508238829534
sS'right_s1'
p3514
F0.40855522612757245
sS'right_w0'
p3515
F-0.8629708658384274
sS'right_w1'
p3516
F-1.0314667018568286
sS'right_w2'
p3517
F2.3020602610098457
sS'right_e0'
p3518
F0.9458513588914226
sS'right_e1'
p3519
F1.4711377321491845
ssS'-0.279'
p3520
(dp3521
S'right_s0'
p3522
F-0.0660847569947407
sS'right_s1'
p3523
F0.40847156542577245
sS'right_w0'
p3524
F-0.8630059676568216
sS'right_w1'
p3525
F-1.031386521012779
sS'right_w2'
p3526
F2.302138928433573
sS'right_e0'
p3527
F0.9458352903984455
sS'right_e1'
p3528
F1.471201090971996
ssS'-0.571'
p3529
(dp3530
S'right_s0'
p3531
F-0.308656929654588
sS'right_s1'
p3532
F0.20270604776235412
sS'right_w0'
p3533
F-1.2679762174434117
sS'right_w1'
p3534
F-0.8218160456083217
sS'right_w2'
p3535
F2.999025541150525
sS'right_e0'
p3536
F0.774591276580626
sS'right_e1'
p3537
F1.1999950700567368
ssS'-0.274'
p3538
(dp3539
S'right_s0'
p3540
F-0.05702425861263727
sS'right_s1'
p3541
F0.41342624673024275
sS'right_w0'
p3542
F-0.85783339259575
sS'right_w1'
p3543
F-1.037155926604143
sS'right_w2'
p3544
F2.2936219660915125
sS'right_e0'
p3545
F0.9498069362454311
sS'right_e1'
p3546
F1.4708219243610774
ssS'-0.275'
p3547
(dp3548
S'right_s0'
p3549
F-0.057036407498150865
sS'right_s1'
p3550
F0.41341294433043707
sS'right_w0'
p3551
F-0.8578515725956652
sS'right_w1'
p3552
F-1.0371424263501243
sS'right_w2'
p3553
F2.293619248454293
sS'right_e0'
p3554
F0.9498436394861631
sS'right_e1'
p3555
F1.4708346953514813
ssS'-0.276'
p3556
(dp3557
S'right_s0'
p3558
F-0.07289101037597598
sS'right_s1'
p3559
F0.4041287150893955
sS'right_w0'
p3560
F-0.8681135210590143
sS'right_w1'
p3561
F-1.0259985728004943
sS'right_w2'
p3562
F2.310669022377085
sS'right_e0'
p3563
F0.9423163123653305
sS'right_e1'
p3564
F1.4718278223732564
ssS'-0.277'
p3565
(dp3566
S'right_s0'
p3567
F-0.06606508238829534
sS'right_s1'
p3568
F0.40855522612757245
sS'right_w0'
p3569
F-0.8629708658384274
sS'right_w1'
p3570
F-1.0314667018568286
sS'right_w2'
p3571
F2.3020602610098457
sS'right_e0'
p3572
F0.9458513588914226
sS'right_e1'
p3573
F1.4711377321491845
ssS'-0.271'
p3574
(dp3575
S'right_s0'
p3576
F-0.05695931039178603
sS'right_s1'
p3577
F0.41351509269487874
sS'right_w0'
p3578
F-0.8577168006884248
sS'right_w1'
p3579
F-1.0372950899735125
sS'right_w2'
p3580
F2.2935406795002375
sS'right_e0'
p3581
F0.9497688860081075
sS'right_e1'
p3582
F1.4707068040143652
ssS'-0.272'
p3583
(dp3584
S'right_s0'
p3585
F-0.05697100753806961
sS'right_s1'
p3586
F0.4134234093870326
sS'right_w0'
p3587
F-0.8577648109070282
sS'right_w1'
p3588
F-1.03719162198996
sS'right_w2'
p3589
F2.2936472329443163
sS'right_e0'
p3590
F0.949734229639966
sS'right_e1'
p3591
F1.470772095083845
ssS'-0.273'
p3592
(dp3593
S'right_s0'
p3594
F-0.05697100753806961
sS'right_s1'
p3595
F0.4134234093870326
sS'right_w0'
p3596
F-0.8577648109070282
sS'right_w1'
p3597
F-1.03719162198996
sS'right_w2'
p3598
F2.2936472329443163
sS'right_e0'
p3599
F0.949734229639966
sS'right_e1'
p3600
F1.470772095083845
ssS'-0.558'
p3601
(dp3602
S'right_s0'
p3603
F-0.3072818415654801
sS'right_s1'
p3604
F0.21084186570235097
sS'right_w0'
p3605
F-1.2362338955865244
sS'right_w1'
p3606
F-0.8246985781741731
sS'right_w2'
p3607
F2.939533170378521
sS'right_e0'
p3608
F0.7881962963865323
sS'right_e1'
p3609
F1.235299881744071
ssS'-0.478'
p3610
(dp3611
S'right_s0'
p3612
F-0.27625707935412347
sS'right_s1'
p3613
F0.2571888925408823
sS'right_w0'
p3614
F-1.0991934429368921
sS'right_w1'
p3615
F-0.860741250859534
sS'right_w2'
p3616
F2.698683046196601
sS'right_e0'
p3617
F0.838097796038797
sS'right_e1'
p3618
F1.3597749835234678
ssS'-0.479'
p3619
(dp3620
S'right_s0'
p3621
F-0.2816239514237383
sS'right_s1'
p3622
F0.2498477191877816
sS'right_w0'
p3623
F-1.118683847894531
sS'right_w1'
p3624
F-0.8533054507633168
sS'right_w2'
p3625
F2.7316897549148953
sS'right_e0'
p3626
F0.8319960541469802
sS'right_e1'
p3627
F1.3452520538909172
ssS'-0.476'
p3628
(dp3629
S'right_s0'
p3630
F-0.2759780459388619
sS'right_s1'
p3631
F0.2572213971857895
sS'right_w0'
p3632
F-1.0992366977419676
sS'right_w1'
p3633
F-0.8607190871296382
sS'right_w2'
p3634
F2.6987047279508687
sS'right_e0'
p3635
F0.8381295635332835
sS'right_e1'
p3636
F1.3597967760278067
ssS'-0.477'
p3637
(dp3638
S'right_s0'
p3639
F-0.27612490364676656
sS'right_s1'
p3640
F0.2571963452763901
sS'right_w0'
p3641
F-1.0992124929931721
sS'right_w1'
p3642
F-0.8607316009014854
sS'right_w2'
p3643
F2.698691474871673
sS'right_e0'
p3644
F0.8381064082901233
sS'right_e1'
p3645
F1.3597611576591966
ssS'-0.474'
p3646
(dp3647
S'right_s0'
p3648
F-0.2756001610880494
sS'right_s1'
p3649
F0.25724089760933566
sS'right_w0'
p3650
F-1.0992350634138663
sS'right_w1'
p3651
F-0.8607139746093768
sS'right_w2'
p3652
F2.6987118030945734
sS'right_e0'
p3653
F0.83815727627454
sS'right_e1'
p3654
F1.3598544042379785
ssS'-0.475'
p3655
(dp3656
S'right_s0'
p3657
F-0.2757968791504739
sS'right_s1'
p3658
F0.25723121522552095
sS'right_w0'
p3659
F-1.099237838244953
sS'right_w1'
p3660
F-0.8607130772928437
sS'right_w2'
p3661
F2.6987089375145583
sS'right_e0'
p3662
F0.8381465137984785
sS'right_e1'
p3663
F1.3598260772481012
ssS'-0.472'
p3664
(dp3665
S'right_s0'
p3666
F-0.2751821804740189
sS'right_s1'
p3667
F0.257349706528168
sS'right_w0'
p3668
F-1.0992648560057239
sS'right_w1'
p3669
F-0.8607720254312339
sS'right_w2'
p3670
F2.6986780925441245
sS'right_e0'
p3671
F0.838293614331997
sS'right_e1'
p3672
F1.359960097841153
ssS'-0.473'
p3673
(dp3674
S'right_s0'
p3675
F-0.2753746488561557
sS'right_s1'
p3676
F0.25727374013808024
sS'right_w0'
p3677
F-1.099195565216327
sS'right_w1'
p3678
F-0.8607114350300229
sS'right_w2'
p3679
F2.6987322645654004
sS'right_e0'
p3680
F0.8381936850464813
sS'right_e1'
p3681
F1.3598328379779616
ssS'-0.471'
p3682
(dp3683
S'right_s0'
p3684
F-0.2749525432417057
sS'right_s1'
p3685
F0.25746774748279755
sS'right_w0'
p3686
F-1.0988678311846005
sS'right_w1'
p3687
F-0.8608778659936851
sS'right_w2'
p3688
F2.698101301443584
sS'right_e0'
p3689
F0.8383599655801195
sS'right_e1'
p3690
F1.3601271848855472
ssS'-0.588'
p3691
(dp3692
S'right_s0'
p3693
F-0.30835150640564635
sS'right_s1'
p3694
F0.19706534568781287
sS'right_w0'
p3695
F-1.2993614251080174
sS'right_w1'
p3696
F-0.8204595538963906
sS'right_w2'
p3697
F3.0502900116026783
sS'right_e0'
p3698
F0.7617292038152144
sS'right_e1'
p3699
F1.162829105067087
ssS'-0.589'
p3700
(dp3701
S'right_s0'
p3702
F-0.3085306293944239
sS'right_s1'
p3703
F0.19695950597244938
sS'right_w0'
p3704
F-1.299305813301717
sS'right_w1'
p3705
F-0.8204590518920893
sS'right_w2'
p3706
F3.050340290507515
sS'right_e0'
p3707
F0.7617148669721043
sS'right_e1'
p3708
F1.1626492302448543
ssS'-0.582'
p3709
(dp3710
S'right_s0'
p3711
F-0.3089658248506897
sS'right_s1'
p3712
F0.19909988228163833
sS'right_w0'
p3713
F-1.2838660248403837
sS'right_w1'
p3714
F-0.8211219973924004
sS'right_w2'
p3715
F3.0294642935935308
sS'right_e0'
p3716
F0.7674338711669328
sS'right_e1'
p3717
F1.1811774345579122
ssS'-0.583'
p3718
(dp3719
S'right_s0'
p3720
F-0.3090091435558744
sS'right_s1'
p3721
F0.19909925317204102
sS'right_w0'
p3722
F-1.2838600104845979
sS'right_w1'
p3723
F-0.8211143844850604
sS'right_w2'
p3724
F3.0294585098345053
sS'right_e0'
p3725
F0.7674235171983232
sS'right_e1'
p3726
F1.18115481872821
ssS'-0.581'
p3727
(dp3728
S'right_s0'
p3729
F-0.30887935263594635
sS'right_s1'
p3730
F0.1991169186960473
sS'right_w0'
p3731
F-1.283875952983493
sS'right_w1'
p3732
F-0.8210447442049995
sS'right_w2'
p3733
F3.0294794491310864
sS'right_e0'
p3734
F0.7674078325653477
sS'right_e1'
p3735
F1.1811394516501856
ssS'-0.586'
p3736
(dp3737
S'right_s0'
p3738
F-0.30911100909494316
sS'right_s1'
p3739
F0.1990791038899422
sS'right_w0'
p3740
F-1.283840011911808
sS'right_w1'
p3741
F-0.821127555612315
sS'right_w2'
p3742
F3.0294444773743745
sS'right_e0'
p3743
F0.767408820081191
sS'right_e1'
p3744
F1.1811304869046975
ssS'-0.587'
p3745
(dp3746
S'right_s0'
p3747
F-0.3083994640070893
sS'right_s1'
p3748
F0.19629683594874256
sS'right_w0'
p3749
F-1.305653771931694
sS'right_w1'
p3750
F-0.8203485399745721
sS'right_w2'
p3751
F3.059000015258789
sS'right_e0'
p3752
F0.7596198614947003
sS'right_e1'
p3753
F1.1558944880722541
ssS'-0.584'
p3754
(dp3755
S'right_s0'
p3756
F-0.30904080081642604
sS'right_s1'
p3757
F0.19908704856573145
sS'right_w0'
p3758
F-1.283861744760661
sS'right_w1'
p3759
F-0.8211102547094367
sS'right_w2'
p3760
F3.0294522272982665
sS'right_e0'
p3761
F0.7674209217106931
sS'right_e1'
p3762
F1.1811577372536703
ssS'-0.585'
p3763
(dp3764
S'right_s0'
p3765
F-0.3090923658671443
sS'right_s1'
p3766
F0.19908258286045744
sS'right_w0'
p3767
F-1.283841856603317
sS'right_w1'
p3768
F-0.8211230170635222
sS'right_w2'
p3769
F3.0294434491227946
sS'right_e0'
p3770
F0.7674279317703885
sS'right_e1'
p3771
F1.1811682124259724
ssS'-0.054'
p3772
(dp3773
S'right_s0'
p3774
F0.3596795411764937
sS'right_s1'
p3775
F0.565660757497481
sS'right_w0'
p3776
F-0.7216890875702955
sS'right_w1'
p3777
F-1.1994125319031745
sS'right_w2'
p3778
F2.1076716569083747
sS'right_e0'
p3779
F1.1409445196831802
sS'right_e1'
p3780
F1.3120986640563155
ssS'-0.055'
p3781
(dp3782
S'right_s0'
p3783
F0.3591634798967114
sS'right_s1'
p3784
F0.5656272346398916
sS'right_w0'
p3785
F-0.7217136219526923
sS'right_w1'
p3786
F-1.1994367600225164
sS'right_w2'
p3787
F2.1076760114469124
sS'right_e0'
p3788
F1.1407642300953507
sS'right_e1'
p3789
F1.312207821333521
ssS'-0.056'
p3790
(dp3791
S'right_s0'
p3792
F0.3591634798967114
sS'right_s1'
p3793
F0.5656272346398916
sS'right_w0'
p3794
F-0.7217136219526923
sS'right_w1'
p3795
F-1.1994367600225164
sS'right_w2'
p3796
F2.1076760114469124
sS'right_e0'
p3797
F1.1407642300953507
sS'right_e1'
p3798
F1.312207821333521
ssS'-0.057'
p3799
(dp3800
S'right_s0'
p3801
F0.35872704428309454
sS'right_s1'
p3802
F0.5656225693671066
sS'right_w0'
p3803
F-0.7216884148286331
sS'right_w1'
p3804
F-1.1994671681961346
sS'right_w2'
p3805
F2.107658533735865
sS'right_e0'
p3806
F1.1406525791391058
sS'right_e1'
p3807
F1.3121719207989448
ssS'-0.199'
p3808
(dp3809
S'right_s0'
p3810
F0.05192547379203732
sS'right_s1'
p3811
F0.4657228126190436
sS'right_w0'
p3812
F-0.8084214992474256
sS'right_w1'
p3813
F-1.0968678957482116
sS'right_w2'
p3814
F2.215159172032975
sS'right_e0'
p3815
F0.9966883775191666
sS'right_e1'
p3816
F1.453044927438109
ssS'-0.051'
p3817
(dp3818
S'right_s0'
p3819
F0.3771581086950482
sS'right_s1'
p3820
F0.5694485992697658
sS'right_w0'
p3821
F-0.7174179575332049
sS'right_w1'
p3822
F-1.2029935897150184
sS'right_w2'
p3823
F2.1048226791964364
sS'right_e0'
p3824
F1.1494588429353092
sS'right_e1'
p3825
F1.300674407675575
ssS'-0.052'
p3826
(dp3827
S'right_s0'
p3828
F0.3510745568951022
sS'right_s1'
p3829
F0.563975158833209
sS'right_w0'
p3830
F-0.723831069194843
sS'right_w1'
p3831
F-1.1978985824665147
sS'right_w2'
p3832
F2.109378917150116
sS'right_e0'
p3833
F1.1370018364450873
sS'right_e1'
p3834
F1.3177502174978013
ssS'-0.053'
p3835
(dp3836
S'right_s0'
p3837
F0.3596795411764937
sS'right_s1'
p3838
F0.565660757497481
sS'right_w0'
p3839
F-0.7216890875702955
sS'right_w1'
p3840
F-1.1994125319031745
sS'right_w2'
p3841
F2.1076716569083747
sS'right_e0'
p3842
F1.1409445196831802
sS'right_e1'
p3843
F1.3120986640563155
ssS'-0.195'
p3844
(dp3845
S'right_s0'
p3846
F0.07283433359886438
sS'right_s1'
p3847
F0.47512275315145125
sS'right_w0'
p3848
F-0.799915595464574
sS'right_w1'
p3849
F-1.1073838372979194
sS'right_w2'
p3850
F2.2020205499994816
sS'right_e0'
p3851
F1.0064494480915993
sS'right_e1'
p3852
F1.4460877803206955
ssS'-0.194'
p3853
(dp3854
S'right_s0'
p3855
F0.07302190669379272
sS'right_s1'
p3856
F0.47512408591862343
sS'right_w0'
p3857
F-0.7998869030880673
sS'right_w1'
p3858
F-1.1075069038327054
sS'right_w2'
p3859
F2.202028398917598
sS'right_e0'
p3860
F1.0065284292229126
sS'right_e1'
p3861
F1.4459476554568544
ssS'-0.197'
p3862
(dp3863
S'right_s0'
p3864
F0.07266777352399334
sS'right_s1'
p3865
F0.4751578622477668
sS'right_w0'
p3866
F-0.799905703032783
sS'right_w1'
p3867
F-1.10740663635635
sS'right_w2'
p3868
F2.202017124313855
sS'right_e0'
p3869
F1.006427537805938
sS'right_e1'
p3870
F1.4460829541625966
ssS'-0.196'
p3871
(dp3872
S'right_s0'
p3873
F0.07283433359886438
sS'right_s1'
p3874
F0.47512275315145125
sS'right_w0'
p3875
F-0.799915595464574
sS'right_w1'
p3876
F-1.1073838372979194
sS'right_w2'
p3877
F2.2020205499994816
sS'right_e0'
p3878
F1.0064494480915993
sS'right_e1'
p3879
F1.4460877803206955
ssS'-0.058'
p3880
(dp3881
S'right_s0'
p3882
F0.35851838123786717
sS'right_s1'
p3883
F0.565627867857696
sS'right_w0'
p3884
F-0.7216883669783476
sS'right_w1'
p3885
F-1.199480420827392
sS'right_w2'
p3886
F2.1076570743231073
sS'right_e0'
p3887
F1.1406103590394165
sS'right_e1'
p3888
F1.3121530208714205
ssS'-0.059'
p3889
(dp3890
S'right_s0'
p3891
F0.35832455209904523
sS'right_s1'
p3892
F0.5656249691183097
sS'right_w0'
p3893
F-0.7216762021397685
sS'right_w1'
p3894
F-1.1994995078815158
sS'right_w2'
p3895
F2.1076534777621383
sS'right_e0'
p3896
F1.1405806839355765
sS'right_e1'
p3897
F1.312131695971945
ssS'-0.193'
p3898
(dp3899
S'right_s0'
p3900
F0.07330218783916909
sS'right_s1'
p3901
F0.4753196230010488
sS'right_w0'
p3902
F-0.7997121965760128
sS'right_w1'
p3903
F-1.107765856158493
sS'right_w2'
p3904
F2.201817743521257
sS'right_e0'
p3905
F1.0068345391884943
sS'right_e1'
p3906
F1.4457407733448422
ssS'-0.192'
p3907
(dp3908
S'right_s0'
p3909
F0.06446805673945595
sS'right_s1'
p3910
F0.47105509807161244
sS'right_w0'
p3911
F-0.8036652299402582
sS'right_w1'
p3912
F-1.1029260035276758
sS'right_w2'
p3913
F2.2080491744557134
sS'right_e0'
p3914
F1.0022221263941071
sS'right_e1'
p3915
F1.4495245957204659
ssS'-0.296'
p3916
(dp3917
S'right_s0'
p3918
F-0.09231565113241746
sS'right_s1'
p3919
F0.39361379372788985
sS'right_w0'
p3920
F-0.8793645441488742
sS'right_w1'
p3921
F-1.0138008404405472
sS'right_w2'
p3922
F2.3289701763004196
sS'right_e0'
p3923
F0.9344275677528158
sS'right_e1'
p3924
F1.4710340482374633
ssS'-0.297'
p3925
(dp3926
S'right_s0'
p3927
F-0.09224564876529318
sS'right_s1'
p3928
F0.3935562562903172
sS'right_w0'
p3929
F-0.8793499743140725
sS'right_w1'
p3930
F-1.0137667537590147
sS'right_w2'
p3931
F2.328960700295781
sS'right_e0'
p3932
F0.9344565180817348
sS'right_e1'
p3933
F1.4710114906539564
ssS'-0.294'
p3934
(dp3935
S'right_s0'
p3936
F-0.09870342121214387
sS'right_s1'
p3937
F0.38946383569672494
sS'right_w0'
p3938
F-0.8844074214841796
sS'right_w1'
p3939
F-1.0087417881432728
sS'right_w2'
p3940
F2.3375463091389843
sS'right_e0'
p3941
F0.9311903431182726
sS'right_e1'
p3942
F1.4710830451559476
ssS'-0.295'
p3943
(dp3944
S'right_s0'
p3945
F-0.09236127445563724
sS'right_s1'
p3946
F0.39376711925593977
sS'right_w0'
p3947
F-0.8791645112399911
sS'right_w1'
p3948
F-1.0140244281521404
sS'right_w2'
p3949
F2.3286909913567087
sS'right_e0'
p3950
F0.9344849579666601
sS'right_e1'
p3951
F1.4710257255158448
ssS'-0.292'
p3952
(dp3953
S'right_s0'
p3954
F-0.08372838855041387
sS'right_s1'
p3955
F0.398551566592646
sS'right_w0'
p3956
F-0.8737843172131381
sS'right_w1'
p3957
F-1.0196860921947835
sS'right_w2'
p3958
F2.3197657302164423
sS'right_e0'
p3959
F0.938274876355881
sS'right_e1'
p3960
F1.4713059040625813
ssS'-0.293'
p3961
(dp3962
S'right_s0'
p3963
F-0.08371668834177814
sS'right_s1'
p3964
F0.39854586304179307
sS'right_w0'
p3965
F-0.8737905849863807
sS'right_w1'
p3966
F-1.0196731423243488
sS'right_w2'
p3967
F2.3197573524357846
sS'right_e0'
p3968
F0.9383026120362166
sS'right_e1'
p3969
F1.4713350008216617
ssS'-0.359'
p3970
(dp3971
S'right_s0'
p3972
F-0.16891757039975008
sS'right_s1'
p3973
F0.3433841538536866
sS'right_w0'
p3974
F-0.9406764151508806
sS'right_w1'
p3975
F-0.9563346108623199
sS'right_w2'
p3976
F2.4329508006026845
sS'right_e0'
p3977
F0.8987212445059063
sS'right_e1'
p3978
F1.4558811081779215
ssS'-0.291'
p3979
(dp3980
S'right_s0'
p3981
F-0.0837593310392526
sS'right_s1'
p3982
F0.3985688094307642
sS'right_w0'
p3983
F-0.8737763768853464
sS'right_w1'
p3984
F-1.019654064993155
sS'right_w2'
p3985
F2.3197708910084263
sS'right_e0'
p3986
F0.9382319269903805
sS'right_e1'
p3987
F1.471300022946342
ssS'-0.357'
p3988
(dp3989
S'right_s0'
p3990
F-0.1689222808189914
sS'right_s1'
p3991
F0.3434052189196155
sS'right_w0'
p3992
F-0.940689880528156
sS'right_w1'
p3993
F-0.9563368859550669
sS'right_w2'
p3994
F2.432971917006622
sS'right_e0'
p3995
F0.8987617434793593
sS'right_e1'
p3996
F1.455899283809682
ssS'-0.356'
p3997
(dp3998
S'right_s0'
p3999
F-0.16893181290855264
sS'right_s1'
p4000
F0.3434375638369067
sS'right_w0'
p4001
F-0.9407442418161507
sS'right_w1'
p4002
F-0.9563103450568402
sS'right_w2'
p4003
F2.432968307894118
sS'right_e0'
p4004
F0.8988162225788381
sS'right_e1'
p4005
F1.4559161855648854
ssS'-0.355'
p4006
(dp4007
S'right_s0'
p4008
F-0.16901315783000115
sS'right_s1'
p4009
F0.3436128406361396
sS'right_w0'
p4010
F-0.9405542709567323
sS'right_w1'
p4011
F-0.9565203694993247
sS'right_w2'
p4012
F2.4326353630256037
sS'right_e0'
p4013
F0.8989702744721724
sS'right_e1'
p4014
F1.4559846351923795
ssS'-0.354'
p4015
(dp4016
S'right_s0'
p4017
F-0.17433896308759503
sS'right_s1'
p4018
F0.34014593190736553
sS'right_w0'
p4019
F-0.9456407549210012
sS'right_w1'
p4020
F-0.9524896841343412
sS'right_w2'
p4021
F2.441561177465154
sS'right_e0'
p4022
F0.8964550277952156
sS'right_e1'
p4023
F1.4543901032033482
ssS'-0.353'
p4024
(dp4025
S'right_s0'
p4026
F-0.16189218035448416
sS'right_s1'
p4027
F0.34830486082904333
sS'right_w0'
p4028
F-0.9341585525378067
sS'right_w1'
p4029
F-0.9618329416770246
sS'right_w2'
p4030
F2.421685150266402
sS'right_e0'
p4031
F0.9021122259576702
sS'right_e1'
p4032
F1.458400783232145
ssS'-0.352'
p4033
(dp4034
S'right_s0'
p4035
F-0.16190170181969687
sS'right_s1'
p4036
F0.34830762964743833
sS'right_w0'
p4037
F-0.9341700945387448
sS'right_w1'
p4038
F-0.9617967907240459
sS'right_w2'
p4039
F2.4216806849438424
sS'right_e0'
p4040
F0.9021325847742974
sS'right_e1'
p4041
F1.4584303438586597
ssS'-0.298'
p4042
(dp4043
S'right_s0'
p4044
F-0.09223992366829847
sS'right_s1'
p4045
F0.3935580081502259
sS'right_w0'
p4046
F-0.8793328320217411
sS'right_w1'
p4047
F-1.0138078704755893
sS'right_w2'
p4048
F2.328968550718441
sS'right_e0'
p4049
F0.934485699458226
sS'right_e1'
p4050
F1.4710276619955867
ssS'-0.299'
p4051
(dp4052
S'right_s0'
p4053
F-0.09219719955666861
sS'right_s1'
p4054
F0.39354154218949144
sS'right_w0'
p4055
F-0.8793361721903565
sS'right_w1'
p4056
F-1.0138274576934965
sS'right_w2'
p4057
F2.3289587790193025
sS'right_e0'
p4058
F0.9345177483713769
sS'right_e1'
p4059
F1.4710171152547522
ssS'-0.121'
p4060
(dp4061
S'right_s0'
p4062
F0.21836133046435346
sS'right_s1'
p4063
F0.5289733600473019
sS'right_w0'
p4064
F-0.7559599791984404
sS'right_w1'
p4065
F-1.1634485178606413
sS'right_w2'
p4066
F2.1404772747579983
sS'right_e0'
p4067
F1.0741033103872741
sS'right_e1'
p4068
F1.3884186258945785
ssS'-0.122'
p4069
(dp4070
S'right_s0'
p4071
F0.21836133046435346
sS'right_s1'
p4072
F0.5289733600473019
sS'right_w0'
p4073
F-0.7559599791984404
sS'right_w1'
p4074
F-1.1634485178606413
sS'right_w2'
p4075
F2.1404772747579983
sS'right_e0'
p4076
F1.0741033103872741
sS'right_e1'
p4077
F1.3884186258945785
ssS'-0.123'
p4078
(dp4079
S'right_s0'
p4080
F0.21802112685560626
sS'right_s1'
p4081
F0.528949209494022
sS'right_w0'
p4082
F-0.7559397870068292
sS'right_w1'
p4083
F-1.163445051794886
sS'right_w2'
p4084
F2.1404717813204748
sS'right_e0'
p4085
F1.0740821449296059
sS'right_e1'
p4086
F1.3883695326046803
ssS'-0.124'
p4087
(dp4088
S'right_s0'
p4089
F0.19445494909228883
sS'right_s1'
p4090
F0.5212912087840014
sS'right_w0'
p4091
F-0.7628074130746919
sS'right_w1'
p4092
F-1.155401091544401
sS'right_w2'
p4093
F2.14898455474054
sS'right_e0'
p4094
F1.0627471792201
sS'right_e1'
p4095
F1.4005255837994925
ssS'-0.125'
p4096
(dp4097
S'right_s0'
p4098
F0.2033726591664653
sS'right_s1'
p4099
F0.5240153827035874
sS'right_w0'
p4100
F-0.7602781178910121
sS'right_w1'
p4101
F-1.1581759006461665
sS'right_w2'
p4102
F2.1456666389314663
sS'right_e0'
p4103
F1.0668056003091815
sS'right_e1'
p4104
F1.39607368249791
ssS'-0.126'
p4105
(dp4106
S'right_s0'
p4107
F0.2033726591664653
sS'right_s1'
p4108
F0.5240153827035874
sS'right_w0'
p4109
F-0.7602781178910121
sS'right_w1'
p4110
F-1.1581759006461665
sS'right_w2'
p4111
F2.1456666389314663
sS'right_e0'
p4112
F1.0668056003091815
sS'right_e1'
p4113
F1.39607368249791
ssS'-0.127'
p4114
(dp4115
S'right_s0'
p4116
F0.2029328738375451
sS'right_s1'
p4117
F0.5238620987595723
sS'right_w0'
p4118
F-0.7603632490063372
sS'right_w1'
p4119
F-1.1580705146498147
sS'right_w2'
p4120
F2.14576117036278
sS'right_e0'
p4121
F1.0666226573752509
sS'right_e1'
p4122
F1.396205263641808
ssS'-0.128'
p4123
(dp4124
S'right_s0'
p4125
F0.20254184060273417
sS'right_s1'
p4126
F0.5238161420407641
sS'right_w0'
p4127
F-0.7603441865326239
sS'right_w1'
p4128
F-1.1581386360649049
sS'right_w2'
p4129
F2.145744046690478
sS'right_e0'
p4130
F1.0665231877575225
sS'right_e1'
p4131
F1.396141893699375
ssS'-0.129'
p4132
(dp4133
S'right_s0'
p4134
F0.20223294888386611
sS'right_s1'
p4135
F0.5237880114786098
sS'right_w0'
p4136
F-0.7603153887278262
sS'right_w1'
p4137
F-1.1581524143941415
sS'right_w2'
p4138
F2.1457422403569293
sS'right_e0'
p4139
F1.0664900851455172
sS'right_e1'
p4140
F1.396038583266317
ssS'-0.48'
p4141
(dp4142
S'right_s0'
p4143
F-0.2805170704637616
sS'right_s1'
p4144
F0.25157003195686745
sS'right_w0'
p4145
F-1.113572022342427
sS'right_w1'
p4146
F-0.8551540224836192
sS'right_w2'
p4147
F2.7229126422015177
sS'right_e0'
p4148
F0.8335342531541867
sS'right_e1'
p4149
F1.3486908787304044
ssS'-0.49'
p4150
(dp4151
S'right_s0'
p4152
F-0.2855222309147427
sS'right_s1'
p4153
F0.24585456868094724
sS'right_w0'
p4154
F-1.128331599877085
sS'right_w1'
p4155
F-0.8498380267829111
sS'right_w2'
p4156
F2.748092953813508
sS'right_e0'
p4157
F0.8284696666503475
sS'right_e1'
p4158
F1.3366732845537914
ssS'-0.42'
p4159
(dp4160
S'right_s0'
p4161
F-0.2334378495514473
sS'right_s1'
p4162
F0.29534669963676663
sS'right_w0'
p4163
F-1.0168503689505872
sS'right_w1'
p4164
F-0.902306104516823
sS'right_w2'
p4165
F2.56152121327807
sS'right_e0'
p4166
F0.8663287862524163
sS'right_e1'
p4167
F1.416558536933688
ssS'-0.43'
p4168
(dp4169
S'right_s0'
p4170
F-0.2418136776937816
sS'right_s1'
p4171
F0.28869682104810135
sS'right_w0'
p4172
F-1.029430541361883
sS'right_w1'
p4173
F-0.8948799416828948
sS'right_w2'
p4174
F2.582425659650461
sS'right_e0'
p4175
F0.8618792739557923
sS'right_e1'
p4176
F1.408672238173878
ssS'-0.41'
p4177
(dp4178
S'right_s0'
p4179
F-0.22543003501360825
sS'right_s1'
p4180
F0.301421069371572
sS'right_w0'
p4181
F-1.0059396611253932
sS'right_w1'
p4182
F-0.9089843744962005
sS'right_w2'
p4183
F2.5433872353193934
sS'right_e0'
p4184
F0.8702287306738894
sS'right_e1'
p4185
F1.4231247261213475
ssS'-0.46'
p4186
(dp4187
S'right_s0'
p4188
F-0.26384871504631047
sS'right_s1'
p4189
F0.26973848374476184
sS'right_w0'
p4190
F-1.0693504061909778
sS'right_w1'
p4191
F-0.8739297782633804
sS'right_w2'
p4192
F2.648814534284222
sS'right_e0'
p4193
F0.8481164172455848
sS'right_e1'
p4194
F1.3816207611473592
ssS'-0.47'
p4195
(dp4196
S'right_s0'
p4197
F-0.27640526070859905
sS'right_s1'
p4198
F0.25554238810726454
sS'right_w0'
p4199
F-1.104207631466858
sS'right_w1'
p4200
F-0.8588240444533758
sS'right_w2'
p4201
F2.7072073467409745
sS'right_e0'
p4202
F0.8368104189221093
sS'right_e1'
p4203
F1.3567012342228841
ssS'-0.44'
p4204
(dp4205
S'right_s0'
p4206
F-0.24973962744306366
sS'right_s1'
p4207
F0.2822062279013178
sS'right_w0'
p4208
F-1.042499799862135
sS'right_w1'
p4209
F-0.8876255778770803
sS'right_w2'
p4210
F2.604095950935175
sS'right_e0'
p4211
F0.8573330001266974
sS'right_e1'
p4212
F1.4001604281803086
ssS'-0.45'
p4213
(dp4214
S'right_s0'
p4215
F-0.256975930583371
sS'right_s1'
p4216
F0.27595077846892213
sS'right_w0'
p4217
F-1.0558303735163923
sS'right_w1'
p4218
F-0.8806245133095514
sS'right_w2'
p4219
F2.6261883856006722
sS'right_e0'
p4220
F0.8527320785161754
sS'right_e1'
p4221
F1.3911818520911519
ssS'-0.432'
p4222
(dp4223
S'right_s0'
p4224
F-0.24212712902212452
sS'right_s1'
p4225
F0.2886509702808464
sS'right_w0'
p4226
F-1.029410335343643
sS'right_w1'
p4227
F-0.8949352161634705
sS'right_w2'
p4228
F2.5824221918110783
sS'right_e0'
p4229
F0.8618774875469208
sS'right_e1'
p4230
F1.408641537877127
ssS'-0.433'
p4231
(dp4232
S'right_s0'
p4233
F-0.2505624414789844
sS'right_s1'
p4234
F0.2803231420353556
sS'right_w0'
p4235
F-1.0476061533559249
sS'right_w1'
p4236
F-0.884880699152142
sS'right_w2'
p4237
F2.612600217468383
sS'right_e0'
p4238
F0.8557272916293124
sS'right_e1'
p4239
F1.3976870949814943
ssS'-0.539'
p4240
(dp4241
S'right_s0'
p4242
F-0.30366921881884323
sS'right_s1'
p4243
F0.21997673201334855
sS'right_w0'
p4244
F-1.2047345934352371
sS'right_w1'
p4245
F-0.829552195387075
sS'right_w2'
p4246
F2.8819359510591696
sS'right_e0'
p4247
F0.8007756600668854
sS'right_e1'
p4248
F1.267616995715727
ssS'-0.431'
p4249
(dp4250
S'right_s0'
p4251
F-0.24212712902212452
sS'right_s1'
p4252
F0.2886509702808464
sS'right_w0'
p4253
F-1.029410335343643
sS'right_w1'
p4254
F-0.8949352161634705
sS'right_w2'
p4255
F2.5824221918110783
sS'right_e0'
p4256
F0.8618774875469208
sS'right_e1'
p4257
F1.408641537877127
ssS'-0.436'
p4258
(dp4259
S'right_s0'
p4260
F-0.2488625394138646
sS'right_s1'
p4261
F0.2823290017307265
sS'right_w0'
p4262
F-1.0425006206169858
sS'right_w1'
p4263
F-0.8875536070843388
sS'right_w2'
p4264
F2.6041182417472957
sS'right_e0'
p4265
F0.85730792347311
sS'right_e1'
p4266
F1.4002904539269734
ssS'-0.437'
p4267
(dp4268
S'right_s0'
p4269
F-0.24911364399599467
sS'right_s1'
p4270
F0.28228805792813105
sS'right_w0'
p4271
F-1.0425116250030992
sS'right_w1'
p4272
F-0.8875791440125731
sS'right_w2'
p4273
F2.6041141755701354
sS'right_e0'
p4274
F0.8573126730947171
sS'right_e1'
p4275
F1.4002464013434945
ssS'-0.434'
p4276
(dp4277
S'right_s0'
p4278
F-0.2483347811152834
sS'right_s1'
p4279
F0.28257270958873537
sS'right_w0'
p4280
F-1.0424053078363604
sS'right_w1'
p4281
F-0.8876354989342286
sS'right_w2'
p4282
F2.603809829778136
sS'right_e0'
p4283
F0.8573846013078565
sS'right_e1'
p4284
F1.4005229668498513
ssS'-0.435'
p4285
(dp4286
S'right_s0'
p4287
F-0.24860105665276855
sS'right_s1'
p4288
F0.2824176323308274
sS'right_w0'
p4289
F-1.0425777045277016
sS'right_w1'
p4290
F-0.887535354881491
sS'right_w2'
p4291
F2.6041203957261647
sS'right_e0'
p4292
F0.8573311504275756
sS'right_e1'
p4293
F1.4003608481850902
ssS'-0.533'
p4294
(dp4295
S'right_s0'
p4296
F-0.30339047579982276
sS'right_s1'
p4297
F0.21862742809064542
sS'right_w0'
p4298
F-1.2096360956953942
sS'right_w1'
p4299
F-0.8287826529687911
sS'right_w2'
p4300
F2.8906321131186496
sS'right_e0'
p4301
F0.7994920133378655
sS'right_e1'
p4302
F1.2636699642264575
ssS'-0.532'
p4303
(dp4304
S'right_s0'
p4305
F-0.3012800049744788
sS'right_s1'
p4306
F0.22481106289106023
sS'right_w0'
p4307
F-1.1891892320745256
sS'right_w1'
p4308
F-0.8326389453059209
sS'right_w2'
p4309
F2.854068487567968
sS'right_e0'
p4310
F0.8066273612138328
sS'right_e1'
p4311
F1.2827135395847487
ssS'-0.438'
p4312
(dp4313
S'right_s0'
p4314
F-0.24932828464499313
sS'right_s1'
p4315
F0.282247386366949
sS'right_w0'
p4316
F-1.0425191955476727
sS'right_w1'
p4317
F-0.8876010464720157
sS'right_w2'
p4318
F2.6041109631755717
sS'right_e0'
p4319
F0.8573151241056598
sS'right_e1'
p4320
F1.4002087428884922
ssS'-0.439'
p4321
(dp4322
S'right_s0'
p4323
F-0.24954755344596347
sS'right_s1'
p4324
F0.28222649586909565
sS'right_w0'
p4325
F-1.0425126269390201
sS'right_w1'
p4326
F-0.8876147642501557
sS'right_w2'
p4327
F2.604100031069109
sS'right_e0'
p4328
F0.8573292509080863
sS'right_e1'
p4329
F1.4001849458811488
ssS'-0.537'
p4330
(dp4331
S'right_s0'
p4332
F-0.30355371000196385
sS'right_s1'
p4333
F0.21996015273757052
sS'right_w0'
p4334
F-1.204752341212262
sS'right_w1'
p4335
F-0.8295576961148772
sS'right_w2'
p4336
F2.8819608736372118
sS'right_e0'
p4337
F0.8008063544835453
sS'right_e1'
p4338
F1.2676562698567153
ssS'-0.391'
p4339
(dp4340
S'right_s0'
p4341
F-0.2035490217479765
sS'right_s1'
p4342
F0.31839761012426315
sS'right_w0'
p4343
F-0.977424173432043
sS'right_w1'
p4344
F-0.9280928781649918
sS'right_w2'
p4345
F2.495499429513476
sS'right_e0'
p4346
F0.8815060130432579
sS'right_e1'
p4347
F1.438910016727979
ssS'-0.535'
p4348
(dp4349
S'right_s0'
p4350
F-0.3032834920258578
sS'right_s1'
p4351
F0.2199198804628768
sS'right_w0'
p4352
F-1.2048463956333482
sS'right_w1'
p4353
F-0.8295499228482281
sS'right_w2'
p4354
F2.881969061035228
sS'right_e0'
p4355
F0.8009065975895426
sS'right_e1'
p4356
F1.267680745903812
ssS'-0.534'
p4357
(dp4358
S'right_s0'
p4359
F-0.3032397635239965
sS'right_s1'
p4360
F0.21993271874886933
sS'right_w0'
p4361
F-1.204806805703262
sS'right_w1'
p4362
F-0.8295969295151489
sS'right_w2'
p4363
F2.881909774191783
sS'right_e0'
p4364
F0.8009883284604857
sS'right_e1'
p4365
F1.2677750781113524
ssS'-0.573'
p4366
(dp4367
S'right_s0'
p4368
F-0.3088334276714164
sS'right_s1'
p4369
F0.20269736985851505
sS'right_w0'
p4370
F-1.2679204936336408
sS'right_w1'
p4371
F-0.8217902798929142
sS'right_w2'
p4372
F2.9990163985051765
sS'right_e0'
p4373
F0.7746452870700731
sS'right_e1'
p4374
F1.200012096104162
ssS'-0.227'
p4375
(dp4376
S'right_s0'
p4377
F0.015881874458031575
sS'right_s1'
p4378
F0.4501314426075309
sS'right_w0'
p4379
F-0.8217177503412945
sS'right_w1'
p4380
F-1.0799057469387865
sS'right_w2'
p4381
F2.235889682969992
sS'right_e0'
p4382
F0.9815334991309603
sS'right_e1'
p4383
F1.460376641027504
ssS'-0.226'
p4384
(dp4385
S'right_s0'
p4386
F0.016141511641153627
sS'right_s1'
p4387
F0.4503732728828318
sS'right_w0'
p4388
F-0.8215362367338814
sS'right_w1'
p4389
F-1.080180688775643
sS'right_w2'
p4390
F2.2356580134683828
sS'right_e0'
p4391
F0.9818138063300497
sS'right_e1'
p4392
F1.460195697380879
ssS'-0.225'
p4393
(dp4394
S'right_s0'
p4395
F0.007259165869557466
sS'right_s1'
p4396
F0.44521730066593046
sS'right_w0'
p4397
F-0.8268413584819923
sS'right_w1'
p4398
F-1.0738011658233255
sS'right_w2'
p4399
F2.2440525795835367
sS'right_e0'
p4400
F0.9769134571781176
sS'right_e1'
p4401
F1.4633865403274988
ssS'-0.224'
p4402
(dp4403
S'right_s0'
p4404
F0.026930066513784823
sS'right_s1'
p4405
F0.45529861838720187
sS'right_w0'
p4406
F-0.8169951344756594
sS'right_w1'
p4407
F-1.0857522007996039
sS'right_w2'
p4408
F2.2285287663561757
sS'right_e0'
p4409
F0.9864534283334514
sS'right_e1'
p4410
F1.4579673711596062
ssS'-0.223'
p4411
(dp4412
S'right_s0'
p4413
F0.026930066513784823
sS'right_s1'
p4414
F0.45529861838720187
sS'right_w0'
p4415
F-0.8169951344756594
sS'right_w1'
p4416
F-1.0857522007996039
sS'right_w2'
p4417
F2.2285287663561757
sS'right_e0'
p4418
F0.9864534283334514
sS'right_e1'
p4419
F1.4579673711596062
ssS'-0.222'
p4420
(dp4421
S'right_s0'
p4422
F0.02717850848899417
sS'right_s1'
p4423
F0.4553075941504554
sS'right_w0'
p4424
F-0.8170016440057797
sS'right_w1'
p4425
F-1.0857553850120691
sS'right_w2'
p4426
F2.22853459265416
sS'right_e0'
p4427
F0.9864759597435988
sS'right_e1'
p4428
F1.4580093439547532
ssS'-0.221'
p4429
(dp4430
S'right_s0'
p4431
F0.027518447557435266
sS'right_s1'
p4432
F0.4553008892643824
sS'right_w0'
p4433
F-0.8169378986396376
sS'right_w1'
p4434
F-1.0857604888298908
sS'right_w2'
p4435
F2.228550382510239
sS'right_e0'
p4436
F0.9865046667368214
sS'right_e1'
p4437
F1.4579066193504397
ssS'-0.384'
p4438
(dp4439
S'right_s0'
p4440
F-0.1957278114279717
sS'right_s1'
p4441
F0.32394441012065744
sS'right_w0'
p4442
F-0.9689121578634037
sS'right_w1'
p4443
F-0.9342772328330993
sS'right_w2'
p4444
F2.480942540657054
sS'right_e0'
p4445
F0.8853351536229921
sS'right_e1'
p4446
F1.443292896119095
ssS'-0.385'
p4447
(dp4448
S'right_s0'
p4449
F-0.20735008945849304
sS'right_s1'
p4450
F0.3155065668512528
sS'right_w0'
p4451
F-0.9823861962757192
sS'right_w1'
p4452
F-0.9248004056739342
sS'right_w2'
p4453
F2.5040101073409264
sS'right_e0'
p4454
F0.8798326118666557
sS'right_e1'
p4455
F1.4370068821893491
ssS'-0.386'
p4456
(dp4457
S'right_s0'
p4458
F-0.20250550575229553
sS'right_s1'
p4459
F0.31862431571976035
sS'right_w0'
p4460
F-0.9773321657949072
sS'right_w1'
p4461
F-0.9281884558239879
sS'right_w2'
p4462
F2.4952085649757567
sS'right_e0'
p4463
F0.8818262219271711
sS'right_e1'
p4464
F1.439280828692234
ssS'-0.387'
p4465
(dp4466
S'right_s0'
p4467
F-0.20269130462315843
sS'right_s1'
p4468
F0.3185074526035381
sS'right_w0'
p4469
F-0.977520586566941
sS'right_w1'
p4470
F-0.9280011489066506
sS'right_w2'
p4471
F2.4955093746463497
sS'right_e0'
p4472
F0.8816428132702994
sS'right_e1'
p4473
F1.4391367175093093
ssS'-0.381'
p4474
(dp4475
S'right_s0'
p4476
F-0.19559517397333792
sS'right_s1'
p4477
F0.32392139733871606
sS'right_w0'
p4478
F-0.9689322729555858
sS'right_w1'
p4479
F-0.9342824419050082
sS'right_w2'
p4480
F2.480953212835022
sS'right_e0'
p4481
F0.8853700489889791
sS'right_e1'
p4482
F1.4433543365563386
ssS'-0.229'
p4483
(dp4484
S'right_s0'
p4485
F0.01572311672345794
sS'right_s1'
p4486
F0.4501296367805532
sS'right_w0'
p4487
F-0.8217331957046827
sS'right_w1'
p4488
F-1.0798349412230275
sS'right_w2'
p4489
F2.235879198848153
sS'right_e0'
p4490
F0.9815312202016866
sS'right_e1'
p4491
F1.4604539306173985
ssS'-0.228'
p4492
(dp4493
S'right_s0'
p4494
F0.01572311672345794
sS'right_s1'
p4495
F0.4501296367805532
sS'right_w0'
p4496
F-0.8217331957046827
sS'right_w1'
p4497
F-1.0798349412230275
sS'right_w2'
p4498
F2.235879198848153
sS'right_e0'
p4499
F0.9815312202016866
sS'right_e1'
p4500
F1.4604539306173985
ssS'-0.502'
p4501
(dp4502
S'right_s0'
p4503
F-0.29056277700828215
sS'right_s1'
p4504
F0.2403272617167893
sS'right_w0'
p4505
F-1.1432309021782787
sS'right_w1'
p4506
F-0.8448742016769488
sS'right_w2'
p4507
F2.773753566028084
sS'right_e0'
p4508
F0.8231682191143888
sS'right_e1'
p4509
F1.3241284683603478
ssS'-0.548'
p4510
(dp4511
S'right_s0'
p4512
F-0.30576391097718236
sS'right_s1'
p4513
F0.2152824066887371
sS'right_w0'
p4514
F-1.2204770876542668
sS'right_w1'
p4515
F-0.8268245038793012
sS'right_w2'
p4516
F2.9104700932560323
sS'right_e0'
p4517
F0.7946191923958388
sS'right_e1'
p4518
F1.2518302556788319
ssS'-0.4'
p4519
(dp4520
S'right_s0'
p4521
F-0.21685052073384448
sS'right_s1'
p4522
F0.3077671733459493
sS'right_w0'
p4523
F-0.9951376775578566
sS'right_w1'
p4524
F-0.9159410786568243
sS'right_w2'
p4525
F2.525248845741574
sS'right_e0'
p4526
F0.874398763511655
sS'right_e1'
p4527
F1.4295974716324151
ssS'-0.546'
p4528
(dp4529
S'right_s0'
p4530
F-0.3056337193876848
sS'right_s1'
p4531
F0.2152856681276063
sS'right_w0'
p4532
F-1.220489171896081
sS'right_w1'
p4533
F-0.8268326796963583
sS'right_w2'
p4534
F2.910478911501489
sS'right_e0'
p4535
F0.794633740532726
sS'right_e1'
p4536
F1.2518354504458005
ssS'-0.547'
p4537
(dp4538
S'right_s0'
p4539
F-0.30569037339383787
sS'right_s1'
p4540
F0.21527506923719475
sS'right_w0'
p4541
F-1.2204853189391631
sS'right_w1'
p4542
F-0.8268204896750859
sS'right_w2'
p4543
F2.9104788936700245
sS'right_e0'
p4544
F0.7946195937299567
sS'right_e1'
p4545
F1.251852346594081
ssS'-0.544'
p4546
(dp4547
S'right_s0'
p4548
F-0.3053990883570261
sS'right_s1'
p4549
F0.21525341620793625
sS'right_w0'
p4550
F-1.2205392618666178
sS'right_w1'
p4551
F-0.8268920619252684
sS'right_w2'
p4552
F2.9104797907828015
sS'right_e0'
p4553
F0.7947075972555222
sS'right_e1'
p4554
F1.2518426938441234
ssS'-0.545'
p4555
(dp4556
S'right_s0'
p4557
F-0.3055736216389642
sS'right_s1'
p4558
F0.21528027848057008
sS'right_w0'
p4559
F-1.2205160609212706
sS'right_w1'
p4560
F-0.8268850524940827
sS'right_w2'
p4561
F2.91047952475947
sS'right_e0'
p4562
F0.7946602004541967
sS'right_e1'
p4563
F1.25188466082645
ssS'-0.542'
p4564
(dp4565
S'right_s0'
p4566
F-0.30535193321528903
sS'right_s1'
p4567
F0.21403370950855177
sS'right_w0'
p4568
F-1.2252480313745229
sS'right_w1'
p4569
F-0.8262805072917603
sS'right_w2'
p4570
F2.9190684953018704
sS'right_e0'
p4571
F0.7932938176308112
sS'right_e1'
p4572
F1.2477501451182371
ssS'-0.543'
p4573
(dp4574
S'right_s0'
p4575
F-0.3053479560249688
sS'right_s1'
p4576
F0.21527340775030268
sS'right_w0'
p4577
F-1.2203958890045632
sS'right_w1'
p4578
F-0.8269564088632242
sS'right_w2'
p4579
F2.9102190341778744
sS'right_e0'
p4580
F0.7948747018499169
sS'right_e1'
p4581
F1.2520263633031208
ssS'-0.541'
p4582
(dp4583
S'right_s0'
p4584
F-0.30384700826569855
sS'right_s1'
p4585
F0.21996054766901008
sS'right_w0'
p4586
F-1.2047182323176946
sS'right_w1'
p4587
F-0.829555953151675
sS'right_w2'
p4588
F2.881933276671253
sS'right_e0'
p4589
F0.8007438669894089
sS'right_e1'
p4590
F1.2676236990055427
ssS'-0.501'
p4591
(dp4592
S'right_s0'
p4593
F-0.2904426919476917
sS'right_s1'
p4594
F0.2403428200517128
sS'right_w0'
p4595
F-1.1432126492541936
sS'right_w1'
p4596
F-0.8448917348919931
sS'right_w2'
p4597
F2.7737625947127924
sS'right_e0'
p4598
F0.8231978642912283
sS'right_e1'
p4599
F1.324102598201974
ssS'-0.506'
p4600
(dp4601
S'right_s0'
p4602
F-0.29457925196473306
sS'right_s1'
p4603
F0.23350273103930855
sS'right_w0'
p4604
F-1.1633755861863062
sS'right_w1'
p4605
F-0.8391268527658856
sS'right_w2'
p4606
F2.8086243583307473
sS'right_e0'
p4607
F0.8165921203122473
sS'right_e1'
p4608
F1.3073355871015517
ssS'-0.507'
p4609
(dp4610
S'right_s0'
p4611
F-0.29399709260990914
sS'right_s1'
p4612
F0.23501047376245943
sS'right_w0'
p4613
F-1.1583753926028573
sS'right_w1'
p4614
F-0.8404692521415713
sS'right_w2'
p4615
F2.799846833853639
sS'right_e0'
p4616
F0.8181073231525753
sS'right_e1'
p4617
F1.3111256998915088
ssS'-0.504'
p4618
(dp4619
S'right_s0'
p4620
F-0.2908333879528362
sS'right_s1'
p4621
F0.2403268391773956
sS'right_w0'
p4622
F-1.1432198883023226
sS'right_w1'
p4623
F-0.8448813220826015
sS'right_w2'
p4624
F2.7737436676032434
sS'right_e0'
p4625
F0.8231225205539809
sS'right_e1'
p4626
F1.3240942406560805
ssS'-0.551'
p4627
(dp4628
S'right_s0'
p4629
F-0.30683987453414735
sS'right_s1'
p4630
F0.20968097501516186
sS'right_w0'
p4631
F-1.2409569596410646
sS'right_w1'
p4632
F-0.8242467187957695
sS'right_w2'
p4633
F2.9480297923917425
sS'right_e0'
p4634
F0.7868549362954019
sS'right_e1'
p4635
F1.2311057640979484
ssS'-0.505'
p4636
(dp4637
S'right_s0'
p4638
F-0.29085891023727406
sS'right_s1'
p4639
F0.24032458440014626
sS'right_w0'
p4640
F-1.143215164709975
sS'right_w1'
p4641
F-0.8448765245350787
sS'right_w2'
p4642
F2.773740769124238
sS'right_e0'
p4643
F0.8231176392030761
sS'right_e1'
p4644
F1.3240771447522848
ssS'-0.508'
p4645
(dp4646
S'right_s0'
p4647
F-0.2941173762758149
sS'right_s1'
p4648
F0.2349791091708857
sS'right_w0'
p4649
F-1.158558755683515
sS'right_w1'
p4650
F-0.840375643550157
sS'right_w2'
p4651
F2.800154363582582
sS'right_e0'
p4652
F0.8179597418279192
sS'right_e1'
p4653
F1.3109099783739389
ssS'-0.313'
p4654
(dp4655
S'right_s0'
p4656
F-0.11699694664335514
sS'right_s1'
p4657
F0.37870538215395566
sS'right_w0'
p4658
F-0.89638714776531
sS'right_w1'
p4659
F-0.9965189227640003
sS'right_w2'
p4660
F2.357493649576398
sS'right_e0'
p4661
F0.9234611996300055
sS'right_e1'
p4662
F1.4688942240598397
ssS'-0.312'
p4663
(dp4664
S'right_s0'
p4665
F-0.12306270815613907
sS'right_s1'
p4666
F0.37463676181439814
sS'right_w0'
p4667
F-0.9015655181011004
sS'right_w1'
p4668
F-0.9916117005365936
sS'right_w2'
p4669
F2.3664138641918235
sS'right_e0'
p4670
F0.9203919632817334
sS'right_e1'
p4671
F1.4683957849767042
ssS'-0.311'
p4672
(dp4673
S'right_s0'
p4674
F-0.10867618433473414
sS'right_s1'
p4675
F0.38348623604013543
sS'right_w0'
p4676
F-0.8907146615962498
sS'right_w1'
p4677
F-1.0021158166624158
sS'right_w2'
p4678
F2.3479580899416206
sS'right_e0'
p4679
F0.9271023618339846
sS'right_e1'
p4680
F1.4698022713097494
ssS'-0.317'
p4681
(dp4682
S'right_s0'
p4683
F-0.11668105793251637
sS'right_s1'
p4684
F0.3784329050764432
sS'right_w0'
p4685
F-0.8965792001577935
sS'right_w1'
p4686
F-0.9962515436073671
sS'right_w2'
p4687
F2.3578241410929266
sS'right_e0'
p4688
F0.9234222440419391
sS'right_e1'
p4689
F1.4688717649555532
ssS'-0.316'
p4690
(dp4691
S'right_s0'
p4692
F-0.11671690963984815
sS'right_s1'
p4693
F0.37843484227439017
sS'right_w0'
p4694
F-0.896569245577207
sS'right_w1'
p4695
F-0.9962705223440729
sS'right_w2'
p4696
F2.3578241359887
sS'right_e0'
p4697
F0.9233964303462265
sS'right_e1'
p4698
F1.4688702144480157
ssS'-0.315'
p4699
(dp4700
S'right_s0'
p4701
F-0.11677537959507944
sS'right_s1'
p4702
F0.3784536357622752
sS'right_w0'
p4703
F-0.8965483382594197
sS'right_w1'
p4704
F-0.9962763012808082
sS'right_w2'
p4705
F2.3578283906450004
sS'right_e0'
p4706
F0.9233644801895755
sS'right_e1'
p4707
F1.468865863626739
ssS'-0.314'
p4708
(dp4709
S'right_s0'
p4710
F-0.11687321473837375
sS'right_s1'
p4711
F0.3785295423432462
sS'right_w0'
p4712
F-0.8966020558068593
sS'right_w1'
p4713
F-0.9962808558476892
sS'right_w2'
p4714
F2.3578349530369245
sS'right_e0'
p4715
F0.9233777921853017
sS'right_e1'
p4716
F1.4688647670986263
ssS'-0.091'
p4717
(dp4718
S'right_s0'
p4719
F0.286603928086004
sS'right_s1'
p4720
F0.5486005257690891
sS'right_w0'
p4721
F-0.7386579700596831
sS'right_w1'
p4722
F-1.1830319425226081
sS'right_w2'
p4723
F2.1218474332359527
sS'right_e0'
p4724
F1.1064348646691133
sS'right_e1'
p4725
F1.353459271602353
ssS'-0.319'
p4726
(dp4727
S'right_s0'
p4728
F-0.124886100092235
sS'right_s1'
p4729
F0.3736713091674071
sS'right_w0'
p4730
F-0.9023366428080362
sS'right_w1'
p4731
F-0.9907355036696037
sS'right_w2'
p4732
F2.367533973842452
sS'right_e0'
p4733
F0.9199067663309295
sS'right_e1'
p4734
F1.467762220163089
ssS'-0.318'
p4735
(dp4736
S'right_s0'
p4737
F-0.1308667963700103
sS'right_s1'
p4738
F0.3696870764400058
sS'right_w0'
p4739
F-0.9075052185412642
sS'right_w1'
p4740
F-0.9859354612350364
sS'right_w2'
p4741
F2.3764762699942
sS'right_e0'
p4742
F0.9168708037564551
sS'right_e1'
p4743
F1.4670625869671776
ssS'-0.094'
p4744
(dp4745
S'right_s0'
p4746
F0.27033224301078107
sS'right_s1'
p4747
F0.544013726498612
sS'right_w0'
p4748
F-0.7429351151512016
sS'right_w1'
p4749
F-1.178406338036063
sS'right_w2'
p4750
F2.1260736349123928
sS'right_e0'
p4751
F1.0984720203651088
sS'right_e1'
p4752
F1.3628478776046586
ssS'-0.095'
p4753
(dp4754
S'right_s0'
p4755
F0.2700739162717678
sS'right_s1'
p4756
F0.5439587238591326
sS'right_w0'
p4757
F-0.7429604488319326
sS'right_w1'
p4758
F-1.178375200331681
sS'right_w2'
p4759
F2.126083493131194
sS'right_e0'
p4760
F1.0983651328662676
sS'right_e1'
p4761
F1.3629216193143465
ssS'-0.096'
p4762
(dp4763
S'right_s0'
p4764
F0.269641913779898
sS'right_s1'
p4765
F0.5439242305989271
sS'right_w0'
p4766
F-0.7429407033252851
sS'right_w1'
p4767
F-1.1784191322979076
sS'right_w2'
p4768
F2.126079120764242
sS'right_e0'
p4769
F1.0982355386138378
sS'right_e1'
p4770
F1.3628656865396103
ssS'-0.097'
p4771
(dp4772
S'right_s0'
p4773
F0.269641913779898
sS'right_s1'
p4774
F0.5439242305989271
sS'right_w0'
p4775
F-0.7429407033252851
sS'right_w1'
p4776
F-1.1784191322979076
sS'right_w2'
p4777
F2.126079120764242
sS'right_e0'
p4778
F1.0982355386138378
sS'right_e1'
p4779
F1.3628656865396103
ssS'-0.018'
p4780
(dp4781
S'right_s0'
p4782
F0.4536108644366639
sS'right_s1'
p4783
F0.5820911470977483
sS'right_w0'
p4784
F-0.7019784622293468
sS'right_w1'
p4785
F-1.2136516335101124
sS'right_w2'
p4786
F2.0983282084037462
sS'right_e0'
p4787
F1.1850275935882824
sS'right_e1'
p4788
F1.2509367178531408
ssS'-0.164'
p4789
(dp4790
S'right_s0'
p4791
F0.1332657115743494
sS'right_s1'
p4792
F0.49904269280928304
sS'right_w0'
p4793
F-0.7804105127122316
sS'right_w1'
p4794
F-1.1327249755922688
sS'right_w2'
p4795
F2.172881668870822
sS'right_e0'
p4796
F1.0338948564439514
sS'right_e1'
p4797
F1.4257646404907396
ssS'-0.165'
p4798
(dp4799
S'right_s0'
p4800
F0.13303412027092243
sS'right_s1'
p4801
F0.4990059003459564
sS'right_w0'
p4802
F-0.7803944296957521
sS'right_w1'
p4803
F-1.1327307292218904
sS'right_w2'
p4804
F2.172866816572519
sS'right_e0'
p4805
F1.0339042511616716
sS'right_e1'
p4806
F1.42572411902142
ssS'-0.166'
p4807
(dp4808
S'right_s0'
p4809
F0.11215227463094343
sS'right_s1'
p4810
F0.4910271864391991
sS'right_w0'
p4811
F-0.7871940631661087
sS'right_w1'
p4812
F-1.1242199970739035
sS'right_w2'
p4813
F2.1829863485338463
sS'right_e0'
p4814
F1.0241318850289733
sS'right_e1'
p4815
F1.4340574171215192
ssS'-0.167'
p4816
(dp4817
S'right_s0'
p4818
F0.1209572856095269
sS'right_s1'
p4819
F0.4943389379345424
sS'right_w0'
p4820
F-0.7842723675730721
sS'right_w1'
p4821
F-1.1276425923989946
sS'right_w2'
p4822
F2.17853719946433
sS'right_e0'
p4823
F1.0280060580396544
sS'right_e1'
p4824
F1.4304752971024346
ssS'-0.161'
p4825
(dp4826
S'right_s0'
p4827
F0.13381566925286847
sS'right_s1'
p4828
F0.49914055596092055
sS'right_w0'
p4829
F-0.7804398832801756
sS'right_w1'
p4830
F-1.132637529724878
sS'right_w2'
p4831
F2.172890576484658
sS'right_e0'
p4832
F1.033934930750421
sS'right_e1'
p4833
F1.4259198222056213
ssS'-0.162'
p4834
(dp4835
S'right_s0'
p4836
F0.13352931832298953
sS'right_s1'
p4837
F0.4990753713345848
sS'right_w0'
p4838
F-0.7804312564029443
sS'right_w1'
p4839
F-1.1327207395046965
sS'right_w2'
p4840
F2.1728873121909675
sS'right_e0'
p4841
F1.0338865966093564
sS'right_e1'
p4842
F1.4258516217270358
ssS'-0.163'
p4843
(dp4844
S'right_s0'
p4845
F0.13352931832298953
sS'right_s1'
p4846
F0.4990753713345848
sS'right_w0'
p4847
F-0.7804312564029443
sS'right_w1'
p4848
F-1.1327207395046965
sS'right_w2'
p4849
F2.1728873121909675
sS'right_e0'
p4850
F1.0338865966093564
sS'right_e1'
p4851
F1.4258516217270358
ssS'-0.168'
p4852
(dp4853
S'right_s0'
p4854
F0.12078273019742358
sS'right_s1'
p4855
F0.49421739169067624
sS'right_w0'
p4856
F-0.7843741543843414
sS'right_w1'
p4857
F-1.1275150164105803
sS'right_w2'
p4858
F2.1786342467346724
sS'right_e0'
p4859
F1.027908179929109
sS'right_e1'
p4860
F1.430629908046571
ssS'-0.169'
p4861
(dp4862
S'right_s0'
p4863
F0.12071572441328726
sS'right_s1'
p4864
F0.49421777786718835
sS'right_w0'
p4865
F-0.7843556449369133
sS'right_w1'
p4866
F-1.1275611778415628
sS'right_w2'
p4867
F2.1786352169685443
sS'right_e0'
p4868
F1.0279447227122382
sS'right_e1'
p4869
F1.4305975161412388
ssS'-0.366'
p4870
(dp4871
S'right_s0'
p4872
F-0.18758031894013238
sS'right_s1'
p4873
F0.33048129199734494
sS'right_w0'
p4874
F-0.9594132048623084
sS'right_w1'
p4875
F-0.9416319332543832
sS'right_w2'
p4876
F2.465051178672487
sS'right_e0'
p4877
F0.8899192040856704
sS'right_e1'
p4878
F1.4483613943509681
ssS'-0.367'
p4879
(dp4880
S'right_s0'
p4881
F-0.18255188354087437
sS'right_s1'
p4882
F0.3337254965865002
sS'right_w0'
p4883
F-0.9543677205545888
sS'right_w1'
p4884
F-0.9453896426127946
sS'right_w2'
p4885
F2.4562453369678288
sS'right_e0'
p4886
F0.8922177037439702
sS'right_e1'
p4887
F1.4502038228905683
ssS'-0.364'
p4888
(dp4889
S'right_s0'
p4890
F-0.17591782238970133
sS'right_s1'
p4891
F0.33843082969017235
sS'right_w0'
p4892
F-0.947598026749974
sS'right_w1'
p4893
F-0.9506931374725989
sS'right_w2'
p4894
F2.4447510653726034
sS'right_e0'
p4895
F0.8952738455183873
sS'right_e1'
p4896
F1.453141371436696
ssS'-0.365'
p4897
(dp4898
S'right_s0'
p4899
F-0.17594245107799722
sS'right_s1'
p4900
F0.33843940103739456
sS'right_w0'
p4901
F-0.9475871789279466
sS'right_w1'
p4902
F-0.950692995667068
sS'right_w2'
p4903
F2.4447476365435694
sS'right_e0'
p4904
F0.8952526385967108
sS'right_e1'
p4905
F1.4531230207382224
ssS'-0.362'
p4906
(dp4907
S'right_s0'
p4908
F-0.17583863761523766
sS'right_s1'
p4909
F0.33845194321840655
sS'right_w0'
p4910
F-0.9476043347336853
sS'right_w1'
p4911
F-0.9506748391079283
sS'right_w2'
p4912
F2.4447659364570296
sS'right_e0'
p4913
F0.8953606725496597
sS'right_e1'
p4914
F1.4531624910984142
ssS'-0.363'
p4915
(dp4916
S'right_s0'
p4917
F-0.17582689467821844
sS'right_s1'
p4918
F0.3384329574662761
sS'right_w0'
p4919
F-0.9475855968500202
sS'right_w1'
p4920
F-0.9506997029179711
sS'right_w2'
p4921
F2.444759309896268
sS'right_e0'
p4922
F0.8952971908465157
sS'right_e1'
p4923
F1.453075701387072
ssS'-0.009'
p4924
(dp4925
S'right_s0'
p4926
F0.47114585366158845
sS'right_s1'
p4927
F0.583193123655966
sS'right_w0'
p4928
F-0.7012742559602234
sS'right_w1'
p4929
F-1.2132584427683568
sS'right_w2'
p4930
F2.1019876229403565
sS'right_e0'
p4931
F1.1933721976791487
sS'right_e1'
p4932
F1.2367731027044728
ssS'-0.008'
p4933
(dp4934
S'right_s0'
p4935
F0.4707834357533054
sS'right_s1'
p4936
F0.5831606195308838
sS'right_w0'
p4937
F-0.7012517500471471
sS'right_w1'
p4938
F-1.2133286921808972
sS'right_w2'
p4939
F2.101989140786177
sS'right_e0'
p4940
F1.1933904600716216
sS'right_e1'
p4941
F1.2366744499673104
ssS'-0.007'
p4942
(dp4943
S'right_s0'
p4944
F0.4707834357533054
sS'right_s1'
p4945
F0.5831606195308838
sS'right_w0'
p4946
F-0.7012517500471471
sS'right_w1'
p4947
F-1.2133286921808972
sS'right_w2'
p4948
F2.101989140786177
sS'right_e0'
p4949
F1.1933904600716216
sS'right_e1'
p4950
F1.2366744499673104
ssS'-0.006'
p4951
(dp4952
S'right_s0'
p4953
F0.4699642521878875
sS'right_s1'
p4954
F0.5830770954253977
sS'right_w0'
p4955
F-0.7012201987486746
sS'right_w1'
p4956
F-1.2133866625139982
sS'right_w2'
p4957
F2.10199832000259
sS'right_e0'
p4958
F1.1934036603451261
sS'right_e1'
p4959
F1.2365324540951166
ssS'-0.005'
p4960
(dp4961
S'right_s0'
p4962
F0.4699642521878875
sS'right_s1'
p4963
F0.5830770954253977
sS'right_w0'
p4964
F-0.7012201987486746
sS'right_w1'
p4965
F-1.2133866625139982
sS'right_w2'
p4966
F2.10199832000259
sS'right_e0'
p4967
F1.1934036603451261
sS'right_e1'
p4968
F1.2365324540951166
ssS'-0.004'
p4969
(dp4970
S'right_s0'
p4971
F0.46911258185652294
sS'right_s1'
p4972
F0.582980194881829
sS'right_w0'
p4973
F-0.7011706341754982
sS'right_w1'
p4974
F-1.213434053530328
sS'right_w2'
p4975
F2.1020073002912714
sS'right_e0'
p4976
F1.1933908757621623
sS'right_e1'
p4977
F1.2363504020220262
ssS'-0.003'
p4978
(dp4979
S'right_s0'
p4980
F0.46911258185652294
sS'right_s1'
p4981
F0.582980194881829
sS'right_w0'
p4982
F-0.7011706341754982
sS'right_w1'
p4983
F-1.213434053530328
sS'right_w2'
p4984
F2.1020073002912714
sS'right_e0'
p4985
F1.1933908757621623
sS'right_e1'
p4986
F1.2363504020220262
ssS'-0.002'
p4987
(dp4988
S'right_s0'
p4989
F0.4682354691345587
sS'right_s1'
p4990
F0.5828554390731435
sS'right_w0'
p4991
F-0.7010814642004126
sS'right_w1'
p4992
F-1.2136078049181744
sS'right_w2'
p4993
F2.102014732232881
sS'right_e0'
p4994
F1.193318034346456
sS'right_e1'
p4995
F1.2360521345598876
ssS'-0.001'
p4996
(dp4997
S'right_s0'
p4998
F0.4682354691345587
sS'right_s1'
p4999
F0.5828554390731435
sS'right_w0'
p5000
F-0.7010814642004126
sS'right_w1'
p5001
F-1.2136078049181744
sS'right_w2'
p5002
F2.102014732232881
sS'right_e0'
p5003
F1.193318034346456
sS'right_e1'
p5004
F1.2360521345598876
ssS'-0.369'
p5005
(dp5006
S'right_s0'
p5007
F-0.1825885791541202
sS'right_s1'
p5008
F0.33361787442170154
sS'right_w0'
p5009
F-0.9544756582466833
sS'right_w1'
p5010
F-0.9452007592625478
sS'right_w2'
p5011
F2.4564938242871435
sS'right_e0'
p5012
F0.8919978589395221
sS'right_e1'
p5013
F1.4500992459665083
ssS'-0.531'
p5014
(dp5015
S'right_s0'
p5016
F-0.30125143807661026
sS'right_s1'
p5017
F0.22481773598155996
sS'right_w0'
p5018
F-1.1891977650498236
sS'right_w1'
p5019
F-0.8326338880156499
sS'right_w2'
p5020
F2.8540760714718836
sS'right_e0'
p5021
F0.8066368646260536
sS'right_e1'
p5022
F1.2827031600283103
ssS'-0.529'
p5023
(dp5024
S'right_s0'
p5025
F-0.3010400160203073
sS'right_s1'
p5026
F0.22481633640904874
sS'right_w0'
p5027
F-1.1892599566540198
sS'right_w1'
p5028
F-0.8326073862371164
sS'right_w2'
p5029
F2.8540967725608777
sS'right_e0'
p5030
F0.8066986418665287
sS'right_e1'
p5031
F1.2827448293756474
ssS'-0.068'
p5032
(dp5033
S'right_s0'
p5034
F0.3146297386823953
sS'right_s1'
p5035
F0.5556000698533642
sS'right_w0'
p5036
F-0.7323169781193768
sS'right_w1'
p5037
F-1.1898708932621376
sS'right_w2'
p5038
F2.1162374369250276
sS'right_e0'
p5039
F1.1196347356789513
sS'right_e1'
p5040
F1.3390036379916737
ssS'-0.536'
p5041
(dp5042
S'right_s0'
p5043
F-0.30350145226892167
sS'right_s1'
p5044
F0.2199430439521084
sS'right_w0'
p5045
F-1.2047940905028636
sS'right_w1'
p5046
F-0.8295689735649976
sS'right_w2'
p5047
F2.8819649574320962
sS'right_e0'
p5048
F0.8008434375935591
sS'right_e1'
p5049
F1.2677452768371538
ssS'-0.33'
p5050
(dp5051
S'right_s0'
p5052
F-0.14601048515159687
sS'right_s1'
p5053
F0.35982039119533515
sS'right_w0'
p5054
F-0.9197513222532564
sS'right_w1'
p5055
F-0.9746353522368285
sS'right_w2'
p5056
F2.397254368257321
sS'right_e0'
p5057
F0.9099589980181826
sS'right_e1'
p5058
F1.4637248083212042
ssS'-0.32'
p5059
(dp5060
S'right_s0'
p5061
F-0.12478164326391017
sS'right_s1'
p5062
F0.3735022697879167
sS'right_w0'
p5063
F-0.9025041584074707
sS'right_w1'
p5064
F-0.9905332821306443
sS'right_w2'
p5065
F2.367801852895555
sS'right_e0'
p5066
F0.9198243967586865
sS'right_e1'
p5067
F1.467733435754866
ssS'-0.31'
p5068
(dp5069
S'right_s0'
p5070
F-0.10870592947768554
sS'right_s1'
p5071
F0.38349046184178537
sS'right_w0'
p5072
F-0.8907154192850166
sS'right_w1'
p5073
F-1.002131585194304
sS'right_w2'
p5074
F2.3479613111312307
sS'right_e0'
p5075
F0.9270616704082881
sS'right_e1'
p5076
F1.4697982358033492
ssS'-0.37'
p5077
(dp5078
S'right_s0'
p5079
F-0.1826142260732846
sS'right_s1'
p5080
F0.3336281254820461
sS'right_w0'
p5081
F-0.9544745170615316
sS'right_w1'
p5082
F-0.9452339107127772
sS'right_w2'
p5083
F2.4564883599089935
sS'right_e0'
p5084
F0.8919858845103663
sS'right_e1'
p5085
F1.4501199895851729
ssS'-0.36'
p5086
(dp5087
S'right_s0'
p5088
F-0.18103119014580768
sS'right_s1'
p5089
F0.3352862558251609
sS'right_w0'
p5090
F-0.9524427019643085
sS'right_w1'
p5091
F-0.9470462688646571
sS'right_w2'
p5092
F2.4531963987032186
sS'right_e0'
p5093
F0.8931607017818024
sS'right_e1'
p5094
F1.4514937665692338
ssS'-0.35'
p5095
(dp5096
S'right_s0'
p5097
F-0.16190063311008096
sS'right_s1'
p5098
F0.3484049011494843
sS'right_w0'
p5099
F-0.9341001819978754
sS'right_w1'
p5100
F-0.9619025481572319
sS'right_w2'
p5101
F2.421631007669202
sS'right_e0'
p5102
F0.9022567292879291
sS'right_e1'
p5103
F1.4584875048689119
ssS'-0.34'
p5104
(dp5105
S'right_s0'
p5106
F-0.14741850946919222
sS'right_s1'
p5107
F0.3583142312833312
sS'right_w0'
p5108
F-0.9210473705637288
sS'right_w1'
p5109
F-0.973230838692162
sS'right_w2'
p5110
F2.399342361869575
sS'right_e0'
p5111
F0.9091209997095477
sS'right_e1'
p5112
F1.4628015209451704
ssS'-0.39'
p5113
(dp5114
S'right_s0'
p5115
F-0.20336868833418809
sS'right_s1'
p5116
F0.31840709869183126
sS'right_w0'
p5117
F-0.9774292405528442
sS'right_w1'
p5118
F-0.9281055132868259
sS'right_w2'
p5119
F2.4954996190695056
sS'right_e0'
p5120
F0.8815159856412853
sS'right_e1'
p5121
F1.4389494262520888
ssS'-0.38'
p5122
(dp5123
S'right_s0'
p5124
F-0.1955337952009657
sS'right_s1'
p5125
F0.32394596541227294
sS'right_w0'
p5126
F-0.9688876453569701
sS'right_w1'
p5127
F-0.9342880308227226
sS'right_w2'
p5128
F2.4809732398466267
sS'right_e0'
p5129
F0.8854593142050229
sS'right_e1'
p5130
F1.4433998815661502
ssS'-0.5'
p5131
(dp5132
S'right_s0'
p5133
F-0.29033322645520254
sS'right_s1'
p5134
F0.24032678277235142
sS'right_w0'
p5135
F-1.143233816166501
sS'right_w1'
p5136
F-0.8448925375640162
sS'right_w2'
p5137
F2.773765383546321
sS'right_e0'
p5138
F0.8232320638651576
sS'right_e1'
p5139
F1.324154872450789
ssS'-0.348'
p5140
(dp5141
S'right_s0'
p5142
F-0.16749825719358336
sS'right_s1'
p5143
F0.34503915854969364
sS'right_w0'
p5144
F-0.9389754932963754
sS'right_w1'
p5145
F-0.9579666358885517
sS'right_w2'
p5146
F2.430140364050384
sS'right_e0'
p5147
F0.899786156350894
sS'right_e1'
p5148
F1.4570634344391966
ssS'-0.269'
p5149
(dp5150
S'right_s0'
p5151
F-0.047690474938163696
sS'right_s1'
p5152
F0.41843770189116825
sS'right_w0'
p5153
F-0.8525971314914447
sS'right_w1'
p5154
F-1.0430364383483042
sS'right_w2'
p5155
F2.2851785670954925
sS'right_e0'
p5156
F0.9538809508849111
sS'right_e1'
p5157
F1.47015996797706
ssS'-0.268'
p5158
(dp5159
S'right_s0'
p5160
F-0.04766570496609823
sS'right_s1'
p5161
F0.41844704751884176
sS'right_w0'
p5162
F-0.8526132781236084
sS'right_w1'
p5163
F-1.043024083296129
sS'right_w2'
p5164
F2.2851830351173543
sS'right_e0'
p5165
F0.953853582794439
sS'right_e1'
p5166
F1.470166169833151
ssS'-0.1'
p5167
(dp5168
S'right_s0'
p5169
F0.2445436489822147
sS'right_s1'
p5170
F0.5368863567280656
sS'right_w0'
p5171
F-0.7495199509919583
sS'right_w1'
p5172
F-1.1713064124781918
sS'right_w2'
p5173
F2.1332636203175372
sS'right_e0'
p5174
F1.0863584751965931
sS'right_e1'
p5175
F1.37655690076513
ssS'-0.0'
p5176
(dp5177
S'right_s0'
p5178
F0.4672418235807889
sS'right_s1'
p5179
F0.5826796236240801
sS'right_w0'
p5180
F-0.7013345177910937
sS'right_w1'
p5181
F-1.2134896428959419
sS'right_w2'
p5182
F2.1022956448668086
sS'right_e0'
p5183
F1.1932302822397487
sS'right_e1'
p5184
F1.2359139659109255
ssS'-0.3'
p5185
(dp5186
S'right_s0'
p5187
F-0.10698217570201302
sS'right_s1'
p5188
F0.3845306830027168
sS'right_w0'
p5189
F-0.8900230056180195
sS'right_w1'
p5190
F-1.0030166857768144
sS'right_w2'
p5191
F2.346949336110324
sS'right_e0'
p5192
F0.9275524777569918
sS'right_e1'
p5193
F1.4704046329424283
ssS'-0.2'
p5194
(dp5195
S'right_s0'
p5196
F0.06066783402532394
sS'right_s1'
p5197
F0.46955187666822606
sS'right_w0'
p5198
F-0.8049054909619073
sS'right_w1'
p5199
F-1.1010160098218718
sS'right_w2'
p5200
F2.209569618520405
sS'right_e0'
p5201
F1.0004861460321308
sS'right_e1'
p5202
F1.450131474491993
ssS'-0.263'
p5203
(dp5204
S'right_s0'
p5205
F-0.037965777010902535
sS'right_s1'
p5206
F0.4234100633173732
sS'right_w0'
p5207
F-0.8476352824955748
sS'right_w1'
p5208
F-1.048771916750491
sS'right_w2'
p5209
F2.2770204866208132
sS'right_e0'
p5210
F0.957985286644373
sS'right_e1'
p5211
F1.4692538912246684
ssS'-0.262'
p5212
(dp5213
S'right_s0'
p5214
F-0.03795696548763239
sS'right_s1'
p5215
F0.42342374445725994
sS'right_w0'
p5216
F-0.8476240672944311
sS'right_w1'
p5217
F-1.048768318807828
sS'right_w2'
p5218
F2.277025331048957
sS'right_e0'
p5219
F0.9579597551169012
sS'right_e1'
p5220
F1.4692554936906728
ssS'-0.261'
p5221
(dp5222
S'right_s0'
p5223
F-0.03794938297181627
sS'right_s1'
p5224
F0.4234230286231977
sS'right_w0'
p5225
F-0.8475512968740864
sS'right_w1'
p5226
F-1.0488014948035218
sS'right_w2'
p5227
F2.2770335964356505
sS'right_e0'
p5228
F0.957917845792247
sS'right_e1'
p5229
F1.4692782516573022
ssS'-0.509'
p5230
(dp5231
S'right_s0'
p5232
F-0.2941909256009163
sS'right_s1'
p5233
F0.23496622289231617
sS'right_w0'
p5234
F-1.1584833028999686
sS'right_w1'
p5235
F-0.840371512538761
sS'right_w2'
p5236
F2.8001640977236733
sS'right_e0'
p5237
F0.8179055458643658
sS'right_e1'
p5238
F1.310894683020531
ssS'-0.267'
p5239
(dp5240
S'right_s0'
p5241
F-0.0476196469619774
sS'right_s1'
p5242
F0.4184358999013842
sS'right_w0'
p5243
F-0.8525909659035271
sS'right_w1'
p5244
F-1.0430153884685343
sS'right_w2'
p5245
F2.2851864121335552
sS'right_e0'
p5246
F0.9538251556725426
sS'right_e1'
p5247
F1.4701267298308247
ssS'-0.266'
p5248
(dp5249
S'right_s0'
p5250
F-0.04757056852170116
sS'right_s1'
p5251
F0.41841529761749907
sS'right_w0'
p5252
F-0.8526150199735216
sS'right_w1'
p5253
F-1.0430739421571005
sS'right_w2'
p5254
F2.2851865046671715
sS'right_e0'
p5255
F0.9537628284434012
sS'right_e1'
p5256
F1.4700556385920809
ssS'-0.265'
p5257
(dp5258
S'right_s0'
p5259
F-0.047415131418594214
sS'right_s1'
p5260
F0.4186336823466874
sS'right_w0'
p5261
F-0.852364681714386
sS'right_w1'
p5262
F-1.043366807790866
sS'right_w2'
p5263
F2.2848796828785574
sS'right_e0'
p5264
F0.9539573421194865
sS'right_e1'
p5265
F1.469870616978124
ssS'-0.264'
p5266
(dp5267
S'right_s0'
p5268
F-0.05494128426391212
sS'right_s1'
p5269
F0.413848615277887
sS'right_w0'
p5270
F-0.8577475702316391
sS'right_w1'
p5271
F-1.0374678671668822
sS'right_w2'
p5272
F2.2937681822145493
sS'right_e0'
p5273
F0.9499941795526758
sS'right_e1'
p5274
F1.4712595075708732
ssS'-0.469'
p5275
(dp5276
S'right_s0'
p5277
F-0.27036225915683865
sS'right_s1'
p5278
F0.2632236634147542
sS'right_w0'
p5279
F-1.0849358275357641
sS'right_w1'
p5280
F-0.8666688048625346
sS'right_w2'
p5281
F2.674750769540557
sS'right_e0'
p5282
F0.8427348534386025
sS'right_e1'
p5283
F1.3705864509683154
ssS'-0.468'
p5284
(dp5285
S'right_s0'
p5286
F-0.2703103371416766
sS'right_s1'
p5287
F0.2632235957801816
sS'right_w0'
p5288
F-1.0849333402128902
sS'right_w1'
p5289
F-0.8666739028774444
sS'right_w2'
p5290
F2.6747557260031165
sS'right_e0'
p5291
F0.8427424587249508
sS'right_e1'
p5292
F1.370595944746218
ssS'-0.465'
p5293
(dp5294
S'right_s0'
p5295
F-0.2699887875150475
sS'right_s1'
p5296
F0.26321778724110256
sS'right_w0'
p5297
F-1.0849358711048076
sS'right_w1'
p5298
F-0.8666992402749516
sS'right_w2'
p5299
F2.6747686691532753
sS'right_e0'
p5300
F0.8428308193114384
sS'right_e1'
p5301
F1.370641845056113
ssS'-0.464'
p5302
(dp5303
S'right_s0'
p5304
F-0.26980294789148473
sS'right_s1'
p5305
F0.2631954212302441
sS'right_w0'
p5306
F-1.0849159501207133
sS'right_w1'
p5307
F-0.866697182676984
sS'right_w2'
p5308
F2.6747707678407746
sS'right_e0'
p5309
F0.8428700846098165
sS'right_e1'
p5310
F1.3705864978567517
ssS'-0.467'
p5311
(dp5312
S'right_s0'
p5313
F-0.2702186273438647
sS'right_s1'
p5314
F0.2632216206838267
sS'right_w0'
p5315
F-1.084939186107042
sS'right_w1'
p5316
F-0.8666799451673928
sS'right_w2'
p5317
F2.674759562120588
sS'right_e0'
p5318
F0.8427649821584176
sS'right_e1'
p5319
F1.37060251318404
ssS'-0.466'
p5320
(dp5321
S'right_s0'
p5322
F-0.2700969869168368
sS'right_s1'
p5323
F0.2632115793136034
sS'right_w0'
p5324
F-1.0849401800293732
sS'right_w1'
p5325
F-0.8666810512740781
sS'right_w2'
p5326
F2.674763321996455
sS'right_e0'
p5327
F0.842785160796419
sS'right_e1'
p5328
F1.3706050254386994
ssS'-0.461'
p5329
(dp5330
S'right_s0'
p5331
F-0.27081219395667666
sS'right_s1'
p5332
F0.26137742507905115
sS'right_w0'
p5333
F-1.0899539432968477
sS'right_w1'
p5334
F-0.8646159308493853
sS'right_w2'
p5335
F2.6832149010428568
sS'right_e0'
p5336
F0.8415524567132752
sS'right_e1'
p5337
F1.367608704254451
ssS'-0.463'
p5338
(dp5339
S'right_s0'
p5340
F-0.26963773582338124
sS'right_s1'
p5341
F0.26320389455771664
sS'right_w0'
p5342
F-1.0849638116070093
sS'right_w1'
p5343
F-0.8667357928674448
sS'right_w2'
p5344
F2.674772377302304
sS'right_e0'
p5345
F0.8429635362968844
sS'right_e1'
p5346
F1.3705970273084072
ssS'-0.462'
p5347
(dp5348
S'right_s0'
p5349
F-0.26949615241728075
sS'right_s1'
p5350
F0.2632733231007256
sS'right_w0'
p5351
F-1.084770181717717
sS'right_w1'
p5352
F-0.8668627178264003
sS'right_w2'
p5353
F2.6744605968867052
sS'right_e0'
p5354
F0.8431280277005344
sS'right_e1'
p5355
F1.3707607691945993
ss.